
ProbeTest.elf:     file format elf32-avr

Sections:
Idx Name          Size      VMA       LMA       File off  Algn
  0 .text         00002c50  00000000  00000000  00000094  2**1
                  CONTENTS, ALLOC, LOAD, READONLY, CODE
  1 .data         000000d6  00800060  00002c50  00002ce4  2**0
                  CONTENTS, ALLOC, LOAD, DATA
  2 .bss          000000b0  00800136  00800136  00002dba  2**0
                  ALLOC
  3 .comment      0000005c  00000000  00000000  00002dba  2**0
                  CONTENTS, READONLY
  4 .note.gnu.avr.deviceinfo 0000003c  00000000  00000000  00002e18  2**2
                  CONTENTS, READONLY
  5 .debug_aranges 00000178  00000000  00000000  00002e54  2**0
                  CONTENTS, READONLY, DEBUGGING
  6 .debug_info   00001d10  00000000  00000000  00002fcc  2**0
                  CONTENTS, READONLY, DEBUGGING
  7 .debug_abbrev 00000bb1  00000000  00000000  00004cdc  2**0
                  CONTENTS, READONLY, DEBUGGING
  8 .debug_line   00000f57  00000000  00000000  0000588d  2**0
                  CONTENTS, READONLY, DEBUGGING
  9 .debug_frame  00000398  00000000  00000000  000067e4  2**2
                  CONTENTS, READONLY, DEBUGGING
 10 .debug_str    0000078d  00000000  00000000  00006b7c  2**0
                  CONTENTS, READONLY, DEBUGGING
 11 .debug_loc    000010b3  00000000  00000000  00007309  2**0
                  CONTENTS, READONLY, DEBUGGING
 12 .debug_ranges 00000140  00000000  00000000  000083bc  2**0
                  CONTENTS, READONLY, DEBUGGING

Disassembly of section .text:

00000000 <__vectors>:
       0:	0c 94 6b 01 	jmp	0x2d6	; 0x2d6 <__ctors_end>
       4:	0c 94 88 01 	jmp	0x310	; 0x310 <__bad_interrupt>
       8:	0c 94 88 01 	jmp	0x310	; 0x310 <__bad_interrupt>
       c:	0c 94 88 01 	jmp	0x310	; 0x310 <__bad_interrupt>
      10:	0c 94 88 01 	jmp	0x310	; 0x310 <__bad_interrupt>
      14:	0c 94 88 01 	jmp	0x310	; 0x310 <__bad_interrupt>
      18:	0c 94 88 01 	jmp	0x310	; 0x310 <__bad_interrupt>
      1c:	0c 94 88 01 	jmp	0x310	; 0x310 <__bad_interrupt>
      20:	0c 94 88 01 	jmp	0x310	; 0x310 <__bad_interrupt>
      24:	0c 94 88 01 	jmp	0x310	; 0x310 <__bad_interrupt>
      28:	0c 94 88 01 	jmp	0x310	; 0x310 <__bad_interrupt>
      2c:	0c 94 88 01 	jmp	0x310	; 0x310 <__bad_interrupt>
      30:	0c 94 88 01 	jmp	0x310	; 0x310 <__bad_interrupt>
      34:	0c 94 88 01 	jmp	0x310	; 0x310 <__bad_interrupt>
      38:	0c 94 88 01 	jmp	0x310	; 0x310 <__bad_interrupt>
      3c:	0c 94 88 01 	jmp	0x310	; 0x310 <__bad_interrupt>
      40:	0c 94 88 01 	jmp	0x310	; 0x310 <__bad_interrupt>
      44:	0c 94 88 01 	jmp	0x310	; 0x310 <__bad_interrupt>
      48:	0c 94 88 01 	jmp	0x310	; 0x310 <__bad_interrupt>
      4c:	0c 94 88 01 	jmp	0x310	; 0x310 <__bad_interrupt>
      50:	0c 94 88 01 	jmp	0x310	; 0x310 <__bad_interrupt>
      54:	cf 07       	cpc	r28, r31
      56:	af 07       	cpc	r26, r31
      58:	b3 07       	cpc	r27, r19
      5a:	b7 07       	cpc	r27, r23
      5c:	bb 07       	cpc	r27, r27
      5e:	bf 07       	cpc	r27, r31
      60:	c3 07       	cpc	r28, r19
      62:	c7 07       	cpc	r28, r23
      64:	ad 02       	muls	r26, r29
      66:	b9 04       	cpc	r11, r9
      68:	b9 04       	cpc	r11, r9
      6a:	b9 04       	cpc	r11, r9
      6c:	b9 04       	cpc	r11, r9
      6e:	b9 04       	cpc	r11, r9
      70:	b9 04       	cpc	r11, r9
      72:	b9 04       	cpc	r11, r9
      74:	b9 04       	cpc	r11, r9
      76:	b9 04       	cpc	r11, r9
      78:	b9 04       	cpc	r11, r9
      7a:	b9 04       	cpc	r11, r9
      7c:	b9 04       	cpc	r11, r9
      7e:	b9 04       	cpc	r11, r9
      80:	b9 04       	cpc	r11, r9
      82:	b9 04       	cpc	r11, r9
      84:	b9 04       	cpc	r11, r9
      86:	b9 04       	cpc	r11, r9
      88:	b9 04       	cpc	r11, r9
      8a:	b9 04       	cpc	r11, r9
      8c:	b9 04       	cpc	r11, r9
      8e:	b9 04       	cpc	r11, r9
      90:	b9 04       	cpc	r11, r9
      92:	b9 04       	cpc	r11, r9
      94:	b9 04       	cpc	r11, r9
      96:	b9 04       	cpc	r11, r9
      98:	b9 04       	cpc	r11, r9
      9a:	b9 04       	cpc	r11, r9
      9c:	b5 02       	muls	r27, r21
      9e:	c3 02       	muls	r28, r19
      a0:	da 02       	muls	r29, r26
      a2:	1a 04       	cpc	r1, r10
      a4:	b9 04       	cpc	r11, r9
      a6:	f5 02       	muls	r31, r21
      a8:	13 03       	mulsu	r17, r19
      aa:	36 03       	mulsu	r19, r22
      ac:	39 03       	fmul	r19, r17
      ae:	b9 04       	cpc	r11, r9
      b0:	b9 04       	cpc	r11, r9
      b2:	b9 04       	cpc	r11, r9
      b4:	5b 03       	fmul	r21, r19
      b6:	b9 04       	cpc	r11, r9
      b8:	b9 04       	cpc	r11, r9
      ba:	b9 04       	cpc	r11, r9
      bc:	b9 04       	cpc	r11, r9
      be:	aa 03       	fmulsu	r18, r18
      c0:	be 03       	fmulsu	r19, r22
      c2:	c7 03       	fmuls	r20, r23
      c4:	f1 03       	fmuls	r23, r17
      c6:	f3 03       	fmuls	r23, r19
      c8:	14 04       	cpc	r1, r4
      ca:	36 04       	cpc	r3, r6
      cc:	60 04       	cpc	r6, r0
      ce:	b9 04       	cpc	r11, r9
      d0:	b9 04       	cpc	r11, r9
      d2:	b9 04       	cpc	r11, r9
      d4:	b9 04       	cpc	r11, r9
      d6:	b9 04       	cpc	r11, r9
      d8:	b9 04       	cpc	r11, r9
      da:	b9 04       	cpc	r11, r9
      dc:	af 02       	muls	r26, r31
      de:	bd 02       	muls	r27, r29
      e0:	ce 02       	muls	r28, r30
      e2:	e7 02       	muls	r30, r23
      e4:	ea 02       	muls	r30, r26
      e6:	b9 04       	cpc	r11, r9
      e8:	13 03       	mulsu	r17, r19
      ea:	bd 02       	muls	r27, r29
      ec:	b9 04       	cpc	r11, r9
      ee:	48 03       	fmul	r20, r16
      f0:	b9 04       	cpc	r11, r9
      f2:	b9 04       	cpc	r11, r9
      f4:	53 03       	mulsu	r21, r19
      f6:	63 03       	mulsu	r22, r19
      f8:	b9 04       	cpc	r11, r9
      fa:	66 03       	mulsu	r22, r22
      fc:	b9 04       	cpc	r11, r9
      fe:	75 03       	mulsu	r23, r21
     100:	b9 04       	cpc	r11, r9
     102:	c1 03       	fmuls	r20, r17
     104:	e2 03       	fmuls	r22, r18
     106:	b9 04       	cpc	r11, r9
     108:	07 04       	cpc	r0, r7
     10a:	1a 04       	cpc	r1, r10
     10c:	55 04       	cpc	r5, r5
     10e:	78 04       	cpc	r7, r8

00000110 <__trampolines_end>:
     110:	00 40       	sbci	r16, 0x00	; 0
     112:	7a 10       	cpse	r7, r10
     114:	f3 5a       	subi	r31, 0xA3	; 163
     116:	00 a0       	ldd	r0, Z+32	; 0x20
     118:	72 4e       	sbci	r23, 0xE2	; 226
     11a:	18 09       	sbc	r17, r8
     11c:	00 10       	cpse	r0, r0
     11e:	a5 d4       	rcall	.+2378   	; 0xa6a <asctime_r+0x4e>
     120:	e8 00       	.word	0x00e8	; ????
     122:	00 e8       	ldi	r16, 0x80	; 128
     124:	76 48       	sbci	r23, 0x86	; 134
     126:	17 00       	.word	0x0017	; ????
     128:	00 e4       	ldi	r16, 0x40	; 64
     12a:	0b 54       	subi	r16, 0x4B	; 75
     12c:	02 00       	.word	0x0002	; ????
     12e:	00 ca       	rjmp	.-3072   	; 0xfffff530 <__eeprom_end+0xff7ef530>
     130:	9a 3b       	cpi	r25, 0xBA	; 186
     132:	00 00       	nop
     134:	00 e1       	ldi	r16, 0x10	; 16
     136:	f5 05       	cpc	r31, r5
     138:	00 00       	nop
     13a:	80 96       	adiw	r24, 0x20	; 32
     13c:	98 00       	.word	0x0098	; ????
     13e:	00 00       	nop
     140:	40 42       	sbci	r20, 0x20	; 32
     142:	0f 00       	.word	0x000f	; ????
     144:	00 00       	nop
     146:	a0 86       	std	Z+8, r10	; 0x08
     148:	01 00       	.word	0x0001	; ????
     14a:	00 00       	nop
     14c:	10 27       	eor	r17, r16
     14e:	00 00       	nop
     150:	00 00       	nop
     152:	e8 03       	fmulsu	r22, r16
     154:	00 00       	nop
     156:	00 00       	nop
     158:	64 00       	.word	0x0064	; ????
     15a:	00 00       	nop
     15c:	00 00       	nop
     15e:	0a 00       	.word	0x000a	; ????
     160:	00 00       	nop
     162:	00 00       	nop
     164:	01 00       	.word	0x0001	; ????
     166:	00 00       	nop
     168:	00 00       	nop
     16a:	2c 76       	andi	r18, 0x6C	; 108
     16c:	d8 88       	ldd	r13, Y+16	; 0x10
     16e:	dc 67       	ori	r29, 0x7C	; 124
     170:	4f 08       	sbc	r4, r15
     172:	23 df       	rcall	.-442    	; 0xffffffba <__eeprom_end+0xff7effba>
     174:	c1 df       	rcall	.-126    	; 0xf8 <__SREG__+0xb9>
     176:	ae 59       	subi	r26, 0x9E	; 158
     178:	e1 b1       	in	r30, 0x01	; 1
     17a:	b7 96       	adiw	r30, 0x27	; 39
     17c:	e5 e3       	ldi	r30, 0x35	; 53
     17e:	e4 53       	subi	r30, 0x34	; 52
     180:	c6 3a       	cpi	r28, 0xA6	; 166
     182:	e6 51       	subi	r30, 0x16	; 22
     184:	99 76       	andi	r25, 0x69	; 105
     186:	96 e8       	ldi	r25, 0x86	; 134
     188:	e6 c2       	rjmp	.+1484   	; 0x756 <strftime+0x282>
     18a:	84 26       	eor	r8, r20
     18c:	eb 89       	ldd	r30, Y+19	; 0x13
     18e:	8c 9b       	sbis	0x11, 4	; 17
     190:	62 ed       	ldi	r22, 0xD2	; 210
     192:	40 7c       	andi	r20, 0xC0	; 192
     194:	6f fc       	.word	0xfc6f	; ????
     196:	ef bc       	out	0x2f, r14	; 47
     198:	9c 9f       	mul	r25, r28
     19a:	40 f2       	brcs	.-112    	; 0x12c <__trampolines_end+0x1c>
     19c:	ba a5       	ldd	r27, Y+42	; 0x2a
     19e:	6f a5       	ldd	r22, Y+47	; 0x2f
     1a0:	f4 90       	lpm	r15, Z
     1a2:	05 5a       	subi	r16, 0xA5	; 165
     1a4:	2a f7       	brpl	.-54     	; 0x170 <__trampolines_end+0x60>
     1a6:	5c 93       	st	X, r21
     1a8:	6b 6c       	ori	r22, 0xCB	; 203
     1aa:	f9 67       	ori	r31, 0x79	; 121
     1ac:	6d c1       	rjmp	.+730    	; 0x488 <pgm_copystring+0x30>
     1ae:	1b fc       	.word	0xfc1b	; ????
     1b0:	e0 e4       	ldi	r30, 0x40	; 64
     1b2:	0d 47       	sbci	r16, 0x7D	; 125
     1b4:	fe f5       	brtc	.+126    	; 0x234 <strfmonths+0x2a>
     1b6:	20 e6       	ldi	r18, 0x60	; 96
     1b8:	b5 00       	.word	0x00b5	; ????
     1ba:	d0 ed       	ldi	r29, 0xD0	; 208
     1bc:	90 2e       	mov	r9, r16
     1be:	03 00       	.word	0x0003	; ????
     1c0:	94 35       	cpi	r25, 0x54	; 84
     1c2:	77 05       	cpc	r23, r7
     1c4:	00 80       	ld	r0, Z
     1c6:	84 1e       	adc	r8, r20
     1c8:	08 00       	.word	0x0008	; ????
     1ca:	00 20       	and	r0, r0
     1cc:	4e 0a       	sbc	r4, r30
     1ce:	00 00       	nop
     1d0:	00 c8       	rjmp	.-4096   	; 0xfffff1d2 <__eeprom_end+0xff7ef1d2>
     1d2:	0c 33       	cpi	r16, 0x3C	; 60
     1d4:	33 33       	cpi	r19, 0x33	; 51
     1d6:	33 0f       	add	r19, r19
     1d8:	98 6e       	ori	r25, 0xE8	; 232
     1da:	12 83       	std	Z+2, r17	; 0x02
     1dc:	11 41       	sbci	r17, 0x11	; 17
     1de:	ef 8d       	ldd	r30, Y+31	; 0x1f
     1e0:	21 14       	cp	r2, r1
     1e2:	89 3b       	cpi	r24, 0xB9	; 185
     1e4:	e6 55       	subi	r30, 0x56	; 86
     1e6:	16 cf       	rjmp	.-468    	; 0x14 <__FUSE_REGION_LENGTH__+0x12>
     1e8:	fe e6       	ldi	r31, 0x6E	; 110
     1ea:	db 18       	sub	r13, r11
     1ec:	d1 84       	ldd	r13, Z+9	; 0x09
     1ee:	4b 38       	cpi	r20, 0x8B	; 139
     1f0:	1b f7       	brvc	.-58     	; 0x1b8 <__trampolines_end+0xa8>
     1f2:	7c 1d       	adc	r23, r12
     1f4:	90 1d       	adc	r25, r0
     1f6:	a4 bb       	out	0x14, r26	; 20
     1f8:	e4 24       	eor	r14, r4
     1fa:	20 32       	cpi	r18, 0x20	; 32
     1fc:	84 72       	andi	r24, 0x24	; 36
     1fe:	5e 22       	and	r5, r30
     200:	81 00       	.word	0x0081	; ????
     202:	c9 f1       	breq	.+114    	; 0x276 <strfwkdays+0x15>
     204:	24 ec       	ldi	r18, 0xC4	; 196
     206:	a1 e5       	ldi	r26, 0x51	; 81
     208:	3d 27       	eor	r19, r29

0000020a <strfmonths>:
     20a:	4a 61 6e 75 61 72 79 20 46 65 62 72 75 61 72 79     January February
     21a:	20 4d 61 72 63 68 20 41 70 72 69 6c 20 4d 61 79      March April May
     22a:	20 4a 75 6e 65 20 4a 75 6c 79 20 41 75 67 75 73      June July Augus
     23a:	74 20 53 65 70 74 65 6d 62 65 72 20 4f 63 74 6f     t September Octo
     24a:	62 65 72 20 4e 6f 76 65 6d 62 65 72 20 44 65 63     ber November Dec
     25a:	65 6d 62 65 72 20 00                                ember .

00000261 <strfwkdays>:
     261:	53 75 6e 64 61 79 20 4d 6f 6e 64 61 79 20 54 75     Sunday Monday Tu
     271:	65 73 64 61 79 20 57 65 64 6e 65 73 64 61 79 20     esday Wednesday 
     281:	54 68 75 72 73 64 61 79 20 46 72 69 64 61 79 20     Thursday Friday 
     291:	53 61 74 75 72 64 61 79 20 00                       Saturday .

0000029b <ascdays>:
     29b:	53 75 6e 4d 6f 6e 54 75 65 57 65 64 54 68 75 46     SunMonTueWedThuF
     2ab:	72 69 53 61 74 00                                   riSat.

000002b1 <ascmonths>:
     2b1:	4a 61 6e 46 65 62 4d 61 72 41 70 72 4d 61 79 4a     JanFebMarAprMayJ
     2c1:	75 6e 4a 75 6c 41 75 67 53 65 70 4f 63 74 4e 6f     unJulAugSepOctNo
     2d1:	76 44 65 63 00                                      vDec.

000002d6 <__ctors_end>:
     2d6:	11 24       	eor	r1, r1
     2d8:	1f be       	out	0x3f, r1	; 63
     2da:	cf e5       	ldi	r28, 0x5F	; 95
     2dc:	d8 e0       	ldi	r29, 0x08	; 8
     2de:	de bf       	out	0x3e, r29	; 62
     2e0:	cd bf       	out	0x3d, r28	; 61

000002e2 <__do_copy_data>:
     2e2:	11 e0       	ldi	r17, 0x01	; 1
     2e4:	a0 e6       	ldi	r26, 0x60	; 96
     2e6:	b0 e0       	ldi	r27, 0x00	; 0
     2e8:	e0 e5       	ldi	r30, 0x50	; 80
     2ea:	fc e2       	ldi	r31, 0x2C	; 44
     2ec:	02 c0       	rjmp	.+4      	; 0x2f2 <__do_copy_data+0x10>
     2ee:	05 90       	lpm	r0, Z+
     2f0:	0d 92       	st	X+, r0
     2f2:	a6 33       	cpi	r26, 0x36	; 54
     2f4:	b1 07       	cpc	r27, r17
     2f6:	d9 f7       	brne	.-10     	; 0x2ee <__do_copy_data+0xc>

000002f8 <__do_clear_bss>:
     2f8:	21 e0       	ldi	r18, 0x01	; 1
     2fa:	a6 e3       	ldi	r26, 0x36	; 54
     2fc:	b1 e0       	ldi	r27, 0x01	; 1
     2fe:	01 c0       	rjmp	.+2      	; 0x302 <.do_clear_bss_start>

00000300 <.do_clear_bss_loop>:
     300:	1d 92       	st	X+, r1

00000302 <.do_clear_bss_start>:
     302:	a6 3e       	cpi	r26, 0xE6	; 230
     304:	b2 07       	cpc	r27, r18
     306:	e1 f7       	brne	.-8      	; 0x300 <.do_clear_bss_loop>
     308:	0e 94 74 0d 	call	0x1ae8	; 0x1ae8 <main>
     30c:	0c 94 26 16 	jmp	0x2c4c	; 0x2c4c <_exit>

00000310 <__bad_interrupt>:
     310:	0c 94 00 00 	jmp	0	; 0x0 <__vectors>

00000314 <localtime>:
     314:	64 ed       	ldi	r22, 0xD4	; 212
     316:	71 e0       	ldi	r23, 0x01	; 1
     318:	0e 94 91 01 	call	0x322	; 0x322 <localtime_r>
     31c:	84 ed       	ldi	r24, 0xD4	; 212
     31e:	91 e0       	ldi	r25, 0x01	; 1
     320:	08 95       	ret

00000322 <localtime_r>:
     322:	a4 e0       	ldi	r26, 0x04	; 4
     324:	b0 e0       	ldi	r27, 0x00	; 0
     326:	e7 e9       	ldi	r30, 0x97	; 151
     328:	f1 e0       	ldi	r31, 0x01	; 1
     32a:	0c 94 de 15 	jmp	0x2bbc	; 0x2bbc <__prologue_saves__+0x14>
     32e:	6c 01       	movw	r12, r24
     330:	7b 01       	movw	r14, r22
     332:	e0 91 e4 01 	lds	r30, 0x01E4	; 0x8001e4 <__dst_ptr>
     336:	f0 91 e5 01 	lds	r31, 0x01E5	; 0x8001e5 <__dst_ptr+0x1>
     33a:	30 97       	sbiw	r30, 0x00	; 0
     33c:	29 f0       	breq	.+10     	; 0x348 <localtime_r+0x26>
     33e:	60 ee       	ldi	r22, 0xE0	; 224
     340:	71 e0       	ldi	r23, 0x01	; 1
     342:	09 95       	icall
     344:	8c 01       	movw	r16, r24
     346:	02 c0       	rjmp	.+4      	; 0x34c <localtime_r+0x2a>
     348:	0f ef       	ldi	r16, 0xFF	; 255
     34a:	1f ef       	ldi	r17, 0xFF	; 255
     34c:	f6 01       	movw	r30, r12
     34e:	40 81       	ld	r20, Z
     350:	51 81       	ldd	r21, Z+1	; 0x01
     352:	62 81       	ldd	r22, Z+2	; 0x02
     354:	73 81       	ldd	r23, Z+3	; 0x03
     356:	80 91 e0 01 	lds	r24, 0x01E0	; 0x8001e0 <__utc_offset>
     35a:	90 91 e1 01 	lds	r25, 0x01E1	; 0x8001e1 <__utc_offset+0x1>
     35e:	a0 91 e2 01 	lds	r26, 0x01E2	; 0x8001e2 <__utc_offset+0x2>
     362:	b0 91 e3 01 	lds	r27, 0x01E3	; 0x8001e3 <__utc_offset+0x3>
     366:	84 0f       	add	r24, r20
     368:	95 1f       	adc	r25, r21
     36a:	a6 1f       	adc	r26, r22
     36c:	b7 1f       	adc	r27, r23
     36e:	10 16       	cp	r1, r16
     370:	11 06       	cpc	r1, r17
     372:	4c f4       	brge	.+18     	; 0x386 <localtime_r+0x64>
     374:	a8 01       	movw	r20, r16
     376:	01 2e       	mov	r0, r17
     378:	00 0c       	add	r0, r0
     37a:	66 0b       	sbc	r22, r22
     37c:	77 0b       	sbc	r23, r23
     37e:	84 0f       	add	r24, r20
     380:	95 1f       	adc	r25, r21
     382:	a6 1f       	adc	r26, r22
     384:	b7 1f       	adc	r27, r23
     386:	89 83       	std	Y+1, r24	; 0x01
     388:	9a 83       	std	Y+2, r25	; 0x02
     38a:	ab 83       	std	Y+3, r26	; 0x03
     38c:	bc 83       	std	Y+4, r27	; 0x04
     38e:	b7 01       	movw	r22, r14
     390:	ce 01       	movw	r24, r28
     392:	01 96       	adiw	r24, 0x01	; 1
     394:	0e 94 8c 05 	call	0xb18	; 0xb18 <gmtime_r>
     398:	f7 01       	movw	r30, r14
     39a:	13 87       	std	Z+11, r17	; 0x0b
     39c:	02 87       	std	Z+10, r16	; 0x0a
     39e:	24 96       	adiw	r28, 0x04	; 4
     3a0:	e8 e0       	ldi	r30, 0x08	; 8
     3a2:	0c 94 fa 15 	jmp	0x2bf4	; 0x2bf4 <__epilogue_restores__+0x14>

000003a6 <mktime>:
     3a6:	a4 e0       	ldi	r26, 0x04	; 4
     3a8:	b0 e0       	ldi	r27, 0x00	; 0
     3aa:	e9 ed       	ldi	r30, 0xD9	; 217
     3ac:	f1 e0       	ldi	r31, 0x01	; 1
     3ae:	0c 94 de 15 	jmp	0x2bbc	; 0x2bbc <__prologue_saves__+0x14>
     3b2:	8c 01       	movw	r16, r24
     3b4:	0e 94 c7 06 	call	0xd8e	; 0xd8e <mk_gmtime>
     3b8:	69 83       	std	Y+1, r22	; 0x01
     3ba:	7a 83       	std	Y+2, r23	; 0x02
     3bc:	8b 83       	std	Y+3, r24	; 0x03
     3be:	9c 83       	std	Y+4, r25	; 0x04
     3c0:	f8 01       	movw	r30, r16
     3c2:	82 85       	ldd	r24, Z+10	; 0x0a
     3c4:	93 85       	ldd	r25, Z+11	; 0x0b
     3c6:	97 ff       	sbrs	r25, 7
     3c8:	0e c0       	rjmp	.+28     	; 0x3e6 <mktime+0x40>
     3ca:	e0 91 e4 01 	lds	r30, 0x01E4	; 0x8001e4 <__dst_ptr>
     3ce:	f0 91 e5 01 	lds	r31, 0x01E5	; 0x8001e5 <__dst_ptr+0x1>
     3d2:	30 97       	sbiw	r30, 0x00	; 0
     3d4:	41 f0       	breq	.+16     	; 0x3e6 <mktime+0x40>
     3d6:	60 ee       	ldi	r22, 0xE0	; 224
     3d8:	71 e0       	ldi	r23, 0x01	; 1
     3da:	ce 01       	movw	r24, r28
     3dc:	01 96       	adiw	r24, 0x01	; 1
     3de:	09 95       	icall
     3e0:	f8 01       	movw	r30, r16
     3e2:	93 87       	std	Z+11, r25	; 0x0b
     3e4:	82 87       	std	Z+10, r24	; 0x0a
     3e6:	f8 01       	movw	r30, r16
     3e8:	82 85       	ldd	r24, Z+10	; 0x0a
     3ea:	93 85       	ldd	r25, Z+11	; 0x0b
     3ec:	18 16       	cp	r1, r24
     3ee:	19 06       	cpc	r1, r25
     3f0:	94 f4       	brge	.+36     	; 0x416 <__EEPROM_REGION_LENGTH__+0x16>
     3f2:	09 2e       	mov	r0, r25
     3f4:	00 0c       	add	r0, r0
     3f6:	aa 0b       	sbc	r26, r26
     3f8:	bb 0b       	sbc	r27, r27
     3fa:	49 81       	ldd	r20, Y+1	; 0x01
     3fc:	5a 81       	ldd	r21, Y+2	; 0x02
     3fe:	6b 81       	ldd	r22, Y+3	; 0x03
     400:	7c 81       	ldd	r23, Y+4	; 0x04
     402:	6a 01       	movw	r12, r20
     404:	7b 01       	movw	r14, r22
     406:	c8 1a       	sub	r12, r24
     408:	d9 0a       	sbc	r13, r25
     40a:	ea 0a       	sbc	r14, r26
     40c:	fb 0a       	sbc	r15, r27
     40e:	c9 82       	std	Y+1, r12	; 0x01
     410:	da 82       	std	Y+2, r13	; 0x02
     412:	eb 82       	std	Y+3, r14	; 0x03
     414:	fc 82       	std	Y+4, r15	; 0x04
     416:	89 81       	ldd	r24, Y+1	; 0x01
     418:	9a 81       	ldd	r25, Y+2	; 0x02
     41a:	ab 81       	ldd	r26, Y+3	; 0x03
     41c:	bc 81       	ldd	r27, Y+4	; 0x04
     41e:	40 91 e0 01 	lds	r20, 0x01E0	; 0x8001e0 <__utc_offset>
     422:	50 91 e1 01 	lds	r21, 0x01E1	; 0x8001e1 <__utc_offset+0x1>
     426:	60 91 e2 01 	lds	r22, 0x01E2	; 0x8001e2 <__utc_offset+0x2>
     42a:	70 91 e3 01 	lds	r23, 0x01E3	; 0x8001e3 <__utc_offset+0x3>
     42e:	84 1b       	sub	r24, r20
     430:	95 0b       	sbc	r25, r21
     432:	a6 0b       	sbc	r26, r22
     434:	b7 0b       	sbc	r27, r23
     436:	89 83       	std	Y+1, r24	; 0x01
     438:	9a 83       	std	Y+2, r25	; 0x02
     43a:	ab 83       	std	Y+3, r26	; 0x03
     43c:	bc 83       	std	Y+4, r27	; 0x04
     43e:	b8 01       	movw	r22, r16
     440:	ce 01       	movw	r24, r28
     442:	01 96       	adiw	r24, 0x01	; 1
     444:	0e 94 91 01 	call	0x322	; 0x322 <localtime_r>
     448:	69 81       	ldd	r22, Y+1	; 0x01
     44a:	7a 81       	ldd	r23, Y+2	; 0x02
     44c:	8b 81       	ldd	r24, Y+3	; 0x03
     44e:	9c 81       	ldd	r25, Y+4	; 0x04
     450:	24 96       	adiw	r28, 0x04	; 4
     452:	e8 e0       	ldi	r30, 0x08	; 8
     454:	0c 94 fa 15 	jmp	0x2bf4	; 0x2bf4 <__epilogue_restores__+0x14>

00000458 <pgm_copystring>:
     458:	cf 92       	push	r12
     45a:	df 92       	push	r13
     45c:	ef 92       	push	r14
     45e:	0f 93       	push	r16
     460:	cf 93       	push	r28
     462:	df 93       	push	r29
     464:	e9 01       	movw	r28, r18
     466:	6b 01       	movw	r12, r22
     468:	e8 2e       	mov	r14, r24
     46a:	5c 2d       	mov	r21, r12
     46c:	3d 2d       	mov	r19, r13
     46e:	2e 2d       	mov	r18, r14
     470:	ae 2d       	mov	r26, r14
     472:	c6 01       	movw	r24, r12
     474:	01 96       	adiw	r24, 0x01	; 1
     476:	a1 1d       	adc	r26, r1
     478:	44 23       	and	r20, r20
     47a:	59 f0       	breq	.+22     	; 0x492 <pgm_copystring+0x3a>
     47c:	6c 01       	movw	r12, r24
     47e:	ea 2e       	mov	r14, r26
     480:	e5 2f       	mov	r30, r21
     482:	f3 2f       	mov	r31, r19
     484:	84 91       	lpm	r24, Z
     486:	27 fd       	sbrc	r18, 7
     488:	80 81       	ld	r24, Z
     48a:	80 32       	cpi	r24, 0x20	; 32
     48c:	71 f7       	brne	.-36     	; 0x46a <pgm_copystring+0x12>
     48e:	41 50       	subi	r20, 0x01	; 1
     490:	ec cf       	rjmp	.-40     	; 0x46a <pgm_copystring+0x12>
     492:	f6 01       	movw	r30, r12
     494:	34 91       	lpm	r19, Z
     496:	e7 fc       	sbrc	r14, 7
     498:	30 81       	ld	r19, Z
     49a:	6c 01       	movw	r12, r24
     49c:	ea 2e       	mov	r14, r26
     49e:	80 e0       	ldi	r24, 0x00	; 0
     4a0:	30 32       	cpi	r19, 0x20	; 32
     4a2:	41 f4       	brne	.+16     	; 0x4b4 <pgm_copystring+0x5c>
     4a4:	18 82       	st	Y, r1
     4a6:	df 91       	pop	r29
     4a8:	cf 91       	pop	r28
     4aa:	0f 91       	pop	r16
     4ac:	ef 90       	pop	r14
     4ae:	df 90       	pop	r13
     4b0:	cf 90       	pop	r12
     4b2:	08 95       	ret
     4b4:	80 17       	cp	r24, r16
     4b6:	b1 f3       	breq	.-20     	; 0x4a4 <pgm_copystring+0x4c>
     4b8:	21 96       	adiw	r28, 0x01	; 1
     4ba:	fe 01       	movw	r30, r28
     4bc:	31 97       	sbiw	r30, 0x01	; 1
     4be:	30 83       	st	Z, r19
     4c0:	8f 5f       	subi	r24, 0xFF	; 255
     4c2:	f6 01       	movw	r30, r12
     4c4:	34 91       	lpm	r19, Z
     4c6:	e7 fc       	sbrc	r14, 7
     4c8:	30 81       	ld	r19, Z
     4ca:	9f ef       	ldi	r25, 0xFF	; 255
     4cc:	c9 1a       	sub	r12, r25
     4ce:	d9 0a       	sbc	r13, r25
     4d0:	e9 0a       	sbc	r14, r25
     4d2:	e6 cf       	rjmp	.-52     	; 0x4a0 <pgm_copystring+0x48>

000004d4 <strftime>:
     4d4:	a2 e2       	ldi	r26, 0x22	; 34
     4d6:	b0 e0       	ldi	r27, 0x00	; 0
     4d8:	e0 e7       	ldi	r30, 0x70	; 112
     4da:	f2 e0       	ldi	r31, 0x02	; 2
     4dc:	0c 94 d4 15 	jmp	0x2ba8	; 0x2ba8 <__prologue_saves__>
     4e0:	2c 01       	movw	r4, r24
     4e2:	7a a3       	std	Y+34, r23	; 0x22
     4e4:	69 a3       	std	Y+33, r22	; 0x21
     4e6:	4a 01       	movw	r8, r20
     4e8:	79 01       	movw	r14, r18
     4ea:	61 2c       	mov	r6, r1
     4ec:	71 2c       	mov	r7, r1
     4ee:	9e 01       	movw	r18, r28
     4f0:	2f 5f       	subi	r18, 0xFF	; 255
     4f2:	3f 4f       	sbci	r19, 0xFF	; 255
     4f4:	69 01       	movw	r12, r18
     4f6:	84 e6       	ldi	r24, 0x64	; 100
     4f8:	28 2e       	mov	r2, r24
     4fa:	31 2c       	mov	r3, r1
     4fc:	98 ed       	ldi	r25, 0xD8	; 216
     4fe:	a9 2e       	mov	r10, r25
     500:	90 e0       	ldi	r25, 0x00	; 0
     502:	b9 2e       	mov	r11, r25
     504:	29 a1       	ldd	r18, Y+33	; 0x21
     506:	3a a1       	ldd	r19, Y+34	; 0x22
     508:	62 16       	cp	r6, r18
     50a:	73 06       	cpc	r7, r19
     50c:	08 f0       	brcs	.+2      	; 0x510 <strftime+0x3c>
     50e:	60 c2       	rjmp	.+1216   	; 0x9d0 <__stack+0x171>
     510:	d4 01       	movw	r26, r8
     512:	8c 91       	ld	r24, X
     514:	85 32       	cpi	r24, 0x25	; 37
     516:	09 f0       	breq	.+2      	; 0x51a <strftime+0x46>
     518:	4f c2       	rjmp	.+1182   	; 0x9b8 <__stack+0x159>
     51a:	11 96       	adiw	r26, 0x01	; 1
     51c:	1c 91       	ld	r17, X
     51e:	15 34       	cpi	r17, 0x45	; 69
     520:	31 f0       	breq	.+12     	; 0x52e <strftime+0x5a>
     522:	1f 34       	cpi	r17, 0x4F	; 79
     524:	21 f0       	breq	.+8      	; 0x52e <strftime+0x5a>
     526:	b2 e0       	ldi	r27, 0x02	; 2
     528:	8b 0e       	add	r8, r27
     52a:	91 1c       	adc	r9, r1
     52c:	06 c0       	rjmp	.+12     	; 0x53a <strftime+0x66>
     52e:	f4 01       	movw	r30, r8
     530:	12 81       	ldd	r17, Z+2	; 0x02
     532:	94 01       	movw	r18, r8
     534:	2d 5f       	subi	r18, 0xFD	; 253
     536:	3f 4f       	sbci	r19, 0xFF	; 255
     538:	49 01       	movw	r8, r18
     53a:	81 2f       	mov	r24, r17
     53c:	01 2e       	mov	r0, r17
     53e:	00 0c       	add	r0, r0
     540:	99 0b       	sbc	r25, r25
     542:	aa 0b       	sbc	r26, r26
     544:	bb 0b       	sbc	r27, r27
     546:	fc 01       	movw	r30, r24
     548:	b5 97       	sbiw	r30, 0x25	; 37
     54a:	e6 35       	cpi	r30, 0x56	; 86
     54c:	f1 05       	cpc	r31, r1
     54e:	08 f0       	brcs	.+2      	; 0x552 <strftime+0x7e>
     550:	10 c2       	rjmp	.+1056   	; 0x972 <__stack+0x113>
     552:	ee 5c       	subi	r30, 0xCE	; 206
     554:	ff 4f       	sbci	r31, 0xFF	; 255
     556:	0c 94 d8 0e 	jmp	0x1db0	; 0x1db0 <__tablejump2__>
     55a:	85 e2       	ldi	r24, 0x25	; 37
     55c:	b5 c0       	rjmp	.+362    	; 0x6c8 <strftime+0x1f4>
     55e:	03 e0       	ldi	r16, 0x03	; 3
     560:	96 01       	movw	r18, r12
     562:	d7 01       	movw	r26, r14
     564:	14 96       	adiw	r26, 0x04	; 4
     566:	4c 91       	ld	r20, X
     568:	04 c0       	rjmp	.+8      	; 0x572 <strftime+0x9e>
     56a:	0f ef       	ldi	r16, 0xFF	; 255
     56c:	96 01       	movw	r18, r12
     56e:	f7 01       	movw	r30, r14
     570:	44 81       	ldd	r20, Z+4	; 0x04
     572:	61 e6       	ldi	r22, 0x61	; 97
     574:	72 e0       	ldi	r23, 0x02	; 2
     576:	80 e0       	ldi	r24, 0x00	; 0
     578:	0d c0       	rjmp	.+26     	; 0x594 <strftime+0xc0>
     57a:	03 e0       	ldi	r16, 0x03	; 3
     57c:	96 01       	movw	r18, r12
     57e:	d7 01       	movw	r26, r14
     580:	15 96       	adiw	r26, 0x05	; 5
     582:	4c 91       	ld	r20, X
     584:	04 c0       	rjmp	.+8      	; 0x58e <strftime+0xba>
     586:	0f ef       	ldi	r16, 0xFF	; 255
     588:	96 01       	movw	r18, r12
     58a:	f7 01       	movw	r30, r14
     58c:	45 81       	ldd	r20, Z+5	; 0x05
     58e:	6a e0       	ldi	r22, 0x0A	; 10
     590:	72 e0       	ldi	r23, 0x02	; 2
     592:	80 e0       	ldi	r24, 0x00	; 0
     594:	0e 94 2c 02 	call	0x458	; 0x458 <pgm_copystring>
     598:	90 e0       	ldi	r25, 0x00	; 0
     59a:	f0 c1       	rjmp	.+992    	; 0x97c <__stack+0x11d>
     59c:	b6 01       	movw	r22, r12
     59e:	c7 01       	movw	r24, r14
     5a0:	0e 94 0e 05 	call	0xa1c	; 0xa1c <asctime_r>
     5a4:	f6 01       	movw	r30, r12
     5a6:	cf 01       	movw	r24, r30
     5a8:	8c 19       	sub	r24, r12
     5aa:	9d 09       	sbc	r25, r13
     5ac:	21 91       	ld	r18, Z+
     5ae:	21 11       	cpse	r18, r1
     5b0:	fa cf       	rjmp	.-12     	; 0x5a6 <strftime+0xd2>
     5b2:	e4 c1       	rjmp	.+968    	; 0x97c <__stack+0x11d>
     5b4:	d7 01       	movw	r26, r14
     5b6:	16 96       	adiw	r26, 0x06	; 6
     5b8:	8d 91       	ld	r24, X+
     5ba:	9c 91       	ld	r25, X
     5bc:	17 97       	sbiw	r26, 0x07	; 7
     5be:	84 59       	subi	r24, 0x94	; 148
     5c0:	98 4f       	sbci	r25, 0xF8	; 248
     5c2:	b1 01       	movw	r22, r2
     5c4:	0e 94 6d 15 	call	0x2ada	; 0x2ada <__divmodhi4>
     5c8:	7f 93       	push	r23
     5ca:	6f 93       	push	r22
     5cc:	45 c0       	rjmp	.+138    	; 0x658 <strftime+0x184>
     5ce:	f7 01       	movw	r30, r14
     5d0:	83 81       	ldd	r24, Z+3	; 0x03
     5d2:	73 c0       	rjmp	.+230    	; 0x6ba <strftime+0x1e6>
     5d4:	f7 01       	movw	r30, r14
     5d6:	83 81       	ldd	r24, Z+3	; 0x03
     5d8:	28 2f       	mov	r18, r24
     5da:	08 2e       	mov	r0, r24
     5dc:	00 0c       	add	r0, r0
     5de:	33 0b       	sbc	r19, r19
     5e0:	3f 93       	push	r19
     5e2:	8f 93       	push	r24
     5e4:	8d ed       	ldi	r24, 0xDD	; 221
     5e6:	90 e0       	ldi	r25, 0x00	; 0
     5e8:	5b c0       	rjmp	.+182    	; 0x6a0 <strftime+0x1cc>
     5ea:	d7 01       	movw	r26, r14
     5ec:	13 96       	adiw	r26, 0x03	; 3
     5ee:	8c 91       	ld	r24, X
     5f0:	13 97       	sbiw	r26, 0x03	; 3
     5f2:	28 2f       	mov	r18, r24
     5f4:	08 2e       	mov	r0, r24
     5f6:	00 0c       	add	r0, r0
     5f8:	33 0b       	sbc	r19, r19
     5fa:	3f 93       	push	r19
     5fc:	8f 93       	push	r24
     5fe:	15 96       	adiw	r26, 0x05	; 5
     600:	8c 91       	ld	r24, X
     602:	15 97       	sbiw	r26, 0x05	; 5
     604:	08 2e       	mov	r0, r24
     606:	00 0c       	add	r0, r0
     608:	99 0b       	sbc	r25, r25
     60a:	01 96       	adiw	r24, 0x01	; 1
     60c:	9f 93       	push	r25
     60e:	8f 93       	push	r24
     610:	16 96       	adiw	r26, 0x06	; 6
     612:	8d 91       	ld	r24, X+
     614:	9c 91       	ld	r25, X
     616:	17 97       	sbiw	r26, 0x07	; 7
     618:	84 59       	subi	r24, 0x94	; 148
     61a:	98 4f       	sbci	r25, 0xF8	; 248
     61c:	9f 93       	push	r25
     61e:	8f 93       	push	r24
     620:	81 ee       	ldi	r24, 0xE1	; 225
     622:	90 e0       	ldi	r25, 0x00	; 0
     624:	cc c0       	rjmp	.+408    	; 0x7be <strftime+0x2ea>
     626:	d7 01       	movw	r26, r14
     628:	18 96       	adiw	r26, 0x08	; 8
     62a:	6d 91       	ld	r22, X+
     62c:	7c 91       	ld	r23, X
     62e:	19 97       	sbiw	r26, 0x09	; 9
     630:	16 96       	adiw	r26, 0x06	; 6
     632:	8d 91       	ld	r24, X+
     634:	9c 91       	ld	r25, X
     636:	17 97       	sbiw	r26, 0x07	; 7
     638:	ae 01       	movw	r20, r28
     63a:	45 5e       	subi	r20, 0xE5	; 229
     63c:	5f 4f       	sbci	r21, 0xFF	; 255
     63e:	84 59       	subi	r24, 0x94	; 148
     640:	98 4f       	sbci	r25, 0xF8	; 248
     642:	0e 94 53 06 	call	0xca6	; 0xca6 <iso_week_date_r>
     646:	17 36       	cpi	r17, 0x67	; 103
     648:	51 f4       	brne	.+20     	; 0x65e <strftime+0x18a>
     64a:	8b 8d       	ldd	r24, Y+27	; 0x1b
     64c:	9c 8d       	ldd	r25, Y+28	; 0x1c
     64e:	b1 01       	movw	r22, r2
     650:	0e 94 6d 15 	call	0x2ada	; 0x2ada <__divmodhi4>
     654:	9f 93       	push	r25
     656:	8f 93       	push	r24
     658:	89 ee       	ldi	r24, 0xE9	; 233
     65a:	90 e0       	ldi	r25, 0x00	; 0
     65c:	21 c0       	rjmp	.+66     	; 0x6a0 <strftime+0x1cc>
     65e:	8c 8d       	ldd	r24, Y+28	; 0x1c
     660:	8f 93       	push	r24
     662:	8b 8d       	ldd	r24, Y+27	; 0x1b
     664:	8f 93       	push	r24
     666:	8e ee       	ldi	r24, 0xEE	; 238
     668:	90 e0       	ldi	r25, 0x00	; 0
     66a:	1a c0       	rjmp	.+52     	; 0x6a0 <strftime+0x1cc>
     66c:	f7 01       	movw	r30, r14
     66e:	82 81       	ldd	r24, Z+2	; 0x02
     670:	24 c0       	rjmp	.+72     	; 0x6ba <strftime+0x1e6>
     672:	d7 01       	movw	r26, r14
     674:	12 96       	adiw	r26, 0x02	; 2
     676:	8c 91       	ld	r24, X
     678:	6c e0       	ldi	r22, 0x0C	; 12
     67a:	0e 94 4b 15 	call	0x2a96	; 0x2a96 <__divmodqi4>
     67e:	99 23       	and	r25, r25
     680:	21 f0       	breq	.+8      	; 0x68a <strftime+0x1b6>
     682:	89 2f       	mov	r24, r25
     684:	99 0f       	add	r25, r25
     686:	99 0b       	sbc	r25, r25
     688:	16 c1       	rjmp	.+556    	; 0x8b6 <__stack+0x57>
     68a:	8c e0       	ldi	r24, 0x0C	; 12
     68c:	90 e0       	ldi	r25, 0x00	; 0
     68e:	13 c1       	rjmp	.+550    	; 0x8b6 <__stack+0x57>
     690:	f7 01       	movw	r30, r14
     692:	80 85       	ldd	r24, Z+8	; 0x08
     694:	91 85       	ldd	r25, Z+9	; 0x09
     696:	01 96       	adiw	r24, 0x01	; 1
     698:	9f 93       	push	r25
     69a:	8f 93       	push	r24
     69c:	83 ef       	ldi	r24, 0xF3	; 243
     69e:	90 e0       	ldi	r25, 0x00	; 0
     6a0:	9f 93       	push	r25
     6a2:	8f 93       	push	r24
     6a4:	1a c1       	rjmp	.+564    	; 0x8da <__stack+0x7b>
     6a6:	d7 01       	movw	r26, r14
     6a8:	15 96       	adiw	r26, 0x05	; 5
     6aa:	8c 91       	ld	r24, X
     6ac:	08 2e       	mov	r0, r24
     6ae:	00 0c       	add	r0, r0
     6b0:	99 0b       	sbc	r25, r25
     6b2:	01 96       	adiw	r24, 0x01	; 1
     6b4:	00 c1       	rjmp	.+512    	; 0x8b6 <__stack+0x57>
     6b6:	f7 01       	movw	r30, r14
     6b8:	81 81       	ldd	r24, Z+1	; 0x01
     6ba:	28 2f       	mov	r18, r24
     6bc:	08 2e       	mov	r0, r24
     6be:	00 0c       	add	r0, r0
     6c0:	33 0b       	sbc	r19, r19
     6c2:	3f 93       	push	r19
     6c4:	f9 c0       	rjmp	.+498    	; 0x8b8 <__stack+0x59>
     6c6:	8a e0       	ldi	r24, 0x0A	; 10
     6c8:	89 83       	std	Y+1, r24	; 0x01
     6ca:	56 c1       	rjmp	.+684    	; 0x978 <__stack+0x119>
     6cc:	81 e4       	ldi	r24, 0x41	; 65
     6ce:	89 83       	std	Y+1, r24	; 0x01
     6d0:	d7 01       	movw	r26, r14
     6d2:	12 96       	adiw	r26, 0x02	; 2
     6d4:	8c 91       	ld	r24, X
     6d6:	8c 30       	cpi	r24, 0x0C	; 12
     6d8:	14 f0       	brlt	.+4      	; 0x6de <strftime+0x20a>
     6da:	80 e5       	ldi	r24, 0x50	; 80
     6dc:	89 83       	std	Y+1, r24	; 0x01
     6de:	8d e4       	ldi	r24, 0x4D	; 77
     6e0:	8a 83       	std	Y+2, r24	; 0x02
     6e2:	1b 82       	std	Y+3, r1	; 0x03
     6e4:	82 e0       	ldi	r24, 0x02	; 2
     6e6:	90 e0       	ldi	r25, 0x00	; 0
     6e8:	49 c1       	rjmp	.+658    	; 0x97c <__stack+0x11d>
     6ea:	f7 01       	movw	r30, r14
     6ec:	82 81       	ldd	r24, Z+2	; 0x02
     6ee:	6c e0       	ldi	r22, 0x0C	; 12
     6f0:	0e 94 4b 15 	call	0x2a96	; 0x2a96 <__divmodqi4>
     6f4:	99 23       	and	r25, r25
     6f6:	21 f0       	breq	.+8      	; 0x700 <strftime+0x22c>
     6f8:	89 2f       	mov	r24, r25
     6fa:	99 0f       	add	r25, r25
     6fc:	99 0b       	sbc	r25, r25
     6fe:	02 c0       	rjmp	.+4      	; 0x704 <strftime+0x230>
     700:	8c e0       	ldi	r24, 0x0C	; 12
     702:	90 e0       	ldi	r25, 0x00	; 0
     704:	d7 01       	movw	r26, r14
     706:	2c 91       	ld	r18, X
     708:	42 2f       	mov	r20, r18
     70a:	02 2e       	mov	r0, r18
     70c:	00 0c       	add	r0, r0
     70e:	55 0b       	sbc	r21, r21
     710:	5f 93       	push	r21
     712:	2f 93       	push	r18
     714:	11 96       	adiw	r26, 0x01	; 1
     716:	2c 91       	ld	r18, X
     718:	42 2f       	mov	r20, r18
     71a:	02 2e       	mov	r0, r18
     71c:	00 0c       	add	r0, r0
     71e:	55 0b       	sbc	r21, r21
     720:	5f 93       	push	r21
     722:	2f 93       	push	r18
     724:	9f 93       	push	r25
     726:	8f 93       	push	r24
     728:	88 ef       	ldi	r24, 0xF8	; 248
     72a:	90 e0       	ldi	r25, 0x00	; 0
     72c:	9f 93       	push	r25
     72e:	8f 93       	push	r24
     730:	df 92       	push	r13
     732:	cf 92       	push	r12
     734:	0e 94 bb 14 	call	0x2976	; 0x2976 <sprintf>
     738:	0f b6       	in	r0, 0x3f	; 63
     73a:	f8 94       	cli
     73c:	de bf       	out	0x3e, r29	; 62
     73e:	0f be       	out	0x3f, r0	; 63
     740:	cd bf       	out	0x3d, r28	; 61
     742:	d7 01       	movw	r26, r14
     744:	12 96       	adiw	r26, 0x02	; 2
     746:	2c 91       	ld	r18, X
     748:	2c 30       	cpi	r18, 0x0C	; 12
     74a:	0c f4       	brge	.+2      	; 0x74e <strftime+0x27a>
     74c:	17 c1       	rjmp	.+558    	; 0x97c <__stack+0x11d>
     74e:	20 e5       	ldi	r18, 0x50	; 80
     750:	2b 87       	std	Y+11, r18	; 0x0b
     752:	14 c1       	rjmp	.+552    	; 0x97c <__stack+0x11d>
     754:	f7 01       	movw	r30, r14
     756:	81 81       	ldd	r24, Z+1	; 0x01
     758:	28 2f       	mov	r18, r24
     75a:	08 2e       	mov	r0, r24
     75c:	00 0c       	add	r0, r0
     75e:	33 0b       	sbc	r19, r19
     760:	3f 93       	push	r19
     762:	8f 93       	push	r24
     764:	82 81       	ldd	r24, Z+2	; 0x02
     766:	28 2f       	mov	r18, r24
     768:	08 2e       	mov	r0, r24
     76a:	00 0c       	add	r0, r0
     76c:	33 0b       	sbc	r19, r19
     76e:	3f 93       	push	r19
     770:	8f 93       	push	r24
     772:	80 e1       	ldi	r24, 0x10	; 16
     774:	91 e0       	ldi	r25, 0x01	; 1
     776:	9f 93       	push	r25
     778:	8f 93       	push	r24
     77a:	f1 c0       	rjmp	.+482    	; 0x95e <__stack+0xff>
     77c:	d7 01       	movw	r26, r14
     77e:	8c 91       	ld	r24, X
     780:	9c cf       	rjmp	.-200    	; 0x6ba <strftime+0x1e6>
     782:	69 e0       	ldi	r22, 0x09	; 9
     784:	71 e0       	ldi	r23, 0x01	; 1
     786:	c6 01       	movw	r24, r12
     788:	0e 94 6d 14 	call	0x28da	; 0x28da <strcpy>
     78c:	f5 c0       	rjmp	.+490    	; 0x978 <__stack+0x119>
     78e:	f7 01       	movw	r30, r14
     790:	80 81       	ld	r24, Z
     792:	28 2f       	mov	r18, r24
     794:	08 2e       	mov	r0, r24
     796:	00 0c       	add	r0, r0
     798:	33 0b       	sbc	r19, r19
     79a:	3f 93       	push	r19
     79c:	8f 93       	push	r24
     79e:	81 81       	ldd	r24, Z+1	; 0x01
     7a0:	28 2f       	mov	r18, r24
     7a2:	08 2e       	mov	r0, r24
     7a4:	00 0c       	add	r0, r0
     7a6:	33 0b       	sbc	r19, r19
     7a8:	3f 93       	push	r19
     7aa:	8f 93       	push	r24
     7ac:	82 81       	ldd	r24, Z+2	; 0x02
     7ae:	28 2f       	mov	r18, r24
     7b0:	08 2e       	mov	r0, r24
     7b2:	00 0c       	add	r0, r0
     7b4:	33 0b       	sbc	r19, r19
     7b6:	3f 93       	push	r19
     7b8:	8f 93       	push	r24
     7ba:	8b e0       	ldi	r24, 0x0B	; 11
     7bc:	91 e0       	ldi	r25, 0x01	; 1
     7be:	9f 93       	push	r25
     7c0:	8f 93       	push	r24
     7c2:	6e c0       	rjmp	.+220    	; 0x8a0 <__stack+0x41>
     7c4:	d7 01       	movw	r26, r14
     7c6:	14 96       	adiw	r26, 0x04	; 4
     7c8:	8c 91       	ld	r24, X
     7ca:	08 2e       	mov	r0, r24
     7cc:	00 0c       	add	r0, r0
     7ce:	99 0b       	sbc	r25, r25
     7d0:	00 97       	sbiw	r24, 0x00	; 0
     7d2:	11 f4       	brne	.+4      	; 0x7d8 <strftime+0x304>
     7d4:	87 e0       	ldi	r24, 0x07	; 7
     7d6:	90 e0       	ldi	r25, 0x00	; 0
     7d8:	9f 93       	push	r25
     7da:	8f 93       	push	r24
     7dc:	e1 e7       	ldi	r30, 0x71	; 113
     7de:	f0 e0       	ldi	r31, 0x00	; 0
     7e0:	7a c0       	rjmp	.+244    	; 0x8d6 <__stack+0x77>
     7e2:	60 e0       	ldi	r22, 0x00	; 0
     7e4:	22 c0       	rjmp	.+68     	; 0x82a <__DATA_REGION_LENGTH__+0x2a>
     7e6:	d7 01       	movw	r26, r14
     7e8:	18 96       	adiw	r26, 0x08	; 8
     7ea:	6d 91       	ld	r22, X+
     7ec:	7c 91       	ld	r23, X
     7ee:	19 97       	sbiw	r26, 0x09	; 9
     7f0:	16 96       	adiw	r26, 0x06	; 6
     7f2:	8d 91       	ld	r24, X+
     7f4:	9c 91       	ld	r25, X
     7f6:	17 97       	sbiw	r26, 0x07	; 7
     7f8:	ae 01       	movw	r20, r28
     7fa:	45 5e       	subi	r20, 0xE5	; 229
     7fc:	5f 4f       	sbci	r21, 0xFF	; 255
     7fe:	84 59       	subi	r24, 0x94	; 148
     800:	98 4f       	sbci	r25, 0xF8	; 248
     802:	0e 94 53 06 	call	0xca6	; 0xca6 <iso_week_date_r>
     806:	8e 8d       	ldd	r24, Y+30	; 0x1e
     808:	8f 93       	push	r24
     80a:	8d 8d       	ldd	r24, Y+29	; 0x1d
     80c:	55 c0       	rjmp	.+170    	; 0x8b8 <__stack+0x59>
     80e:	f7 01       	movw	r30, r14
     810:	84 81       	ldd	r24, Z+4	; 0x04
     812:	28 2f       	mov	r18, r24
     814:	08 2e       	mov	r0, r24
     816:	00 0c       	add	r0, r0
     818:	33 0b       	sbc	r19, r19
     81a:	3f 93       	push	r19
     81c:	8f 93       	push	r24
     81e:	2a e1       	ldi	r18, 0x1A	; 26
     820:	31 e0       	ldi	r19, 0x01	; 1
     822:	3f 93       	push	r19
     824:	2f 93       	push	r18
     826:	59 c0       	rjmp	.+178    	; 0x8da <__stack+0x7b>
     828:	61 e0       	ldi	r22, 0x01	; 1
     82a:	c7 01       	movw	r24, r14
     82c:	0e 94 ef 04 	call	0x9de	; 0x9de <week_of_year>
     830:	1f 92       	push	r1
     832:	42 c0       	rjmp	.+132    	; 0x8b8 <__stack+0x59>
     834:	d7 01       	movw	r26, r14
     836:	16 96       	adiw	r26, 0x06	; 6
     838:	8d 91       	ld	r24, X+
     83a:	9c 91       	ld	r25, X
     83c:	17 97       	sbiw	r26, 0x07	; 7
     83e:	b1 01       	movw	r22, r2
     840:	0e 94 6d 15 	call	0x2ada	; 0x2ada <__divmodhi4>
     844:	9f 93       	push	r25
     846:	8f 93       	push	r24
     848:	f7 01       	movw	r30, r14
     84a:	83 81       	ldd	r24, Z+3	; 0x03
     84c:	28 2f       	mov	r18, r24
     84e:	08 2e       	mov	r0, r24
     850:	00 0c       	add	r0, r0
     852:	33 0b       	sbc	r19, r19
     854:	3f 93       	push	r19
     856:	8f 93       	push	r24
     858:	85 81       	ldd	r24, Z+5	; 0x05
     85a:	08 2e       	mov	r0, r24
     85c:	00 0c       	add	r0, r0
     85e:	99 0b       	sbc	r25, r25
     860:	01 96       	adiw	r24, 0x01	; 1
     862:	9f 93       	push	r25
     864:	8f 93       	push	r24
     866:	2e ec       	ldi	r18, 0xCE	; 206
     868:	30 e0       	ldi	r19, 0x00	; 0
     86a:	18 c0       	rjmp	.+48     	; 0x89c <__stack+0x3d>
     86c:	f7 01       	movw	r30, r14
     86e:	80 81       	ld	r24, Z
     870:	28 2f       	mov	r18, r24
     872:	08 2e       	mov	r0, r24
     874:	00 0c       	add	r0, r0
     876:	33 0b       	sbc	r19, r19
     878:	3f 93       	push	r19
     87a:	8f 93       	push	r24
     87c:	81 81       	ldd	r24, Z+1	; 0x01
     87e:	28 2f       	mov	r18, r24
     880:	08 2e       	mov	r0, r24
     882:	00 0c       	add	r0, r0
     884:	33 0b       	sbc	r19, r19
     886:	3f 93       	push	r19
     888:	8f 93       	push	r24
     88a:	82 81       	ldd	r24, Z+2	; 0x02
     88c:	28 2f       	mov	r18, r24
     88e:	08 2e       	mov	r0, r24
     890:	00 0c       	add	r0, r0
     892:	33 0b       	sbc	r19, r19
     894:	3f 93       	push	r19
     896:	8f 93       	push	r24
     898:	2d e1       	ldi	r18, 0x1D	; 29
     89a:	31 e0       	ldi	r19, 0x01	; 1
     89c:	3f 93       	push	r19
     89e:	2f 93       	push	r18
     8a0:	df 92       	push	r13
     8a2:	cf 92       	push	r12
     8a4:	0e 94 bb 14 	call	0x2976	; 0x2976 <sprintf>
     8a8:	5e c0       	rjmp	.+188    	; 0x966 <__stack+0x107>
     8aa:	f7 01       	movw	r30, r14
     8ac:	86 81       	ldd	r24, Z+6	; 0x06
     8ae:	97 81       	ldd	r25, Z+7	; 0x07
     8b0:	b1 01       	movw	r22, r2
     8b2:	0e 94 6d 15 	call	0x2ada	; 0x2ada <__divmodhi4>
     8b6:	9f 93       	push	r25
     8b8:	8f 93       	push	r24
     8ba:	bf 92       	push	r11
     8bc:	af 92       	push	r10
     8be:	0d c0       	rjmp	.+26     	; 0x8da <__stack+0x7b>
     8c0:	d7 01       	movw	r26, r14
     8c2:	16 96       	adiw	r26, 0x06	; 6
     8c4:	8d 91       	ld	r24, X+
     8c6:	9c 91       	ld	r25, X
     8c8:	17 97       	sbiw	r26, 0x07	; 7
     8ca:	84 59       	subi	r24, 0x94	; 148
     8cc:	98 4f       	sbci	r25, 0xF8	; 248
     8ce:	9f 93       	push	r25
     8d0:	8f 93       	push	r24
     8d2:	ea e1       	ldi	r30, 0x1A	; 26
     8d4:	f1 e0       	ldi	r31, 0x01	; 1
     8d6:	ff 93       	push	r31
     8d8:	ef 93       	push	r30
     8da:	df 92       	push	r13
     8dc:	cf 92       	push	r12
     8de:	0e 94 bb 14 	call	0x2976	; 0x2976 <sprintf>
     8e2:	0f 90       	pop	r0
     8e4:	0f 90       	pop	r0
     8e6:	0f 90       	pop	r0
     8e8:	0f 90       	pop	r0
     8ea:	0f 90       	pop	r0
     8ec:	0f 90       	pop	r0
     8ee:	46 c0       	rjmp	.+140    	; 0x97c <__stack+0x11d>
     8f0:	60 91 e0 01 	lds	r22, 0x01E0	; 0x8001e0 <__utc_offset>
     8f4:	70 91 e1 01 	lds	r23, 0x01E1	; 0x8001e1 <__utc_offset+0x1>
     8f8:	80 91 e2 01 	lds	r24, 0x01E2	; 0x8001e2 <__utc_offset+0x2>
     8fc:	90 91 e3 01 	lds	r25, 0x01E3	; 0x8001e3 <__utc_offset+0x3>
     900:	2c e3       	ldi	r18, 0x3C	; 60
     902:	30 e0       	ldi	r19, 0x00	; 0
     904:	40 e0       	ldi	r20, 0x00	; 0
     906:	50 e0       	ldi	r21, 0x00	; 0
     908:	0e 94 a3 15 	call	0x2b46	; 0x2b46 <__divmodsi4>
     90c:	89 01       	movw	r16, r18
     90e:	9a 01       	movw	r18, r20
     910:	f8 01       	movw	r30, r16
     912:	d7 01       	movw	r26, r14
     914:	1a 96       	adiw	r26, 0x0a	; 10
     916:	8d 91       	ld	r24, X+
     918:	9c 91       	ld	r25, X
     91a:	1b 97       	sbiw	r26, 0x0b	; 11
     91c:	6c e3       	ldi	r22, 0x3C	; 60
     91e:	70 e0       	ldi	r23, 0x00	; 0
     920:	0e 94 6d 15 	call	0x2ada	; 0x2ada <__divmodhi4>
     924:	16 16       	cp	r1, r22
     926:	17 06       	cpc	r1, r23
     928:	1c f4       	brge	.+6      	; 0x930 <__stack+0xd1>
     92a:	fb 01       	movw	r30, r22
     92c:	e0 0f       	add	r30, r16
     92e:	f1 1f       	adc	r31, r17
     930:	cf 01       	movw	r24, r30
     932:	6c e3       	ldi	r22, 0x3C	; 60
     934:	70 e0       	ldi	r23, 0x00	; 0
     936:	0e 94 6d 15 	call	0x2ada	; 0x2ada <__divmodhi4>
     93a:	97 ff       	sbrs	r25, 7
     93c:	03 c0       	rjmp	.+6      	; 0x944 <__stack+0xe5>
     93e:	91 95       	neg	r25
     940:	81 95       	neg	r24
     942:	91 09       	sbc	r25, r1
     944:	9f 93       	push	r25
     946:	8f 93       	push	r24
     948:	cf 01       	movw	r24, r30
     94a:	6c e3       	ldi	r22, 0x3C	; 60
     94c:	70 e0       	ldi	r23, 0x00	; 0
     94e:	0e 94 6d 15 	call	0x2ada	; 0x2ada <__divmodhi4>
     952:	7f 93       	push	r23
     954:	6f 93       	push	r22
     956:	ec e2       	ldi	r30, 0x2C	; 44
     958:	f1 e0       	ldi	r31, 0x01	; 1
     95a:	ff 93       	push	r31
     95c:	ef 93       	push	r30
     95e:	df 92       	push	r13
     960:	cf 92       	push	r12
     962:	0e 94 bb 14 	call	0x2976	; 0x2976 <sprintf>
     966:	0f b6       	in	r0, 0x3f	; 63
     968:	f8 94       	cli
     96a:	de bf       	out	0x3e, r29	; 62
     96c:	0f be       	out	0x3f, r0	; 63
     96e:	cd bf       	out	0x3d, r28	; 61
     970:	05 c0       	rjmp	.+10     	; 0x97c <__stack+0x11d>
     972:	8f e3       	ldi	r24, 0x3F	; 63
     974:	89 83       	std	Y+1, r24	; 0x01
     976:	1a 82       	std	Y+2, r1	; 0x02
     978:	81 e0       	ldi	r24, 0x01	; 1
     97a:	90 e0       	ldi	r25, 0x00	; 0
     97c:	93 01       	movw	r18, r6
     97e:	28 0f       	add	r18, r24
     980:	39 1f       	adc	r19, r25
     982:	a9 a1       	ldd	r26, Y+33	; 0x21
     984:	ba a1       	ldd	r27, Y+34	; 0x22
     986:	2a 17       	cp	r18, r26
     988:	3b 07       	cpc	r19, r27
     98a:	98 f4       	brcc	.+38     	; 0x9b2 <__stack+0x153>
     98c:	d2 01       	movw	r26, r4
     98e:	f6 01       	movw	r30, r12
     990:	af 01       	movw	r20, r30
     992:	4c 19       	sub	r20, r12
     994:	5d 09       	sbc	r21, r13
     996:	48 17       	cp	r20, r24
     998:	59 07       	cpc	r21, r25
     99a:	1c f4       	brge	.+6      	; 0x9a2 <__stack+0x143>
     99c:	41 91       	ld	r20, Z+
     99e:	4d 93       	st	X+, r20
     9a0:	f7 cf       	rjmp	.-18     	; 0x990 <__stack+0x131>
     9a2:	97 ff       	sbrs	r25, 7
     9a4:	02 c0       	rjmp	.+4      	; 0x9aa <__stack+0x14b>
     9a6:	80 e0       	ldi	r24, 0x00	; 0
     9a8:	90 e0       	ldi	r25, 0x00	; 0
     9aa:	48 0e       	add	r4, r24
     9ac:	59 1e       	adc	r5, r25
     9ae:	39 01       	movw	r6, r18
     9b0:	a9 cd       	rjmp	.-1198   	; 0x504 <strftime+0x30>
     9b2:	f2 01       	movw	r30, r4
     9b4:	10 82       	st	Z, r1
     9b6:	0e c0       	rjmp	.+28     	; 0x9d4 <__stack+0x175>
     9b8:	d2 01       	movw	r26, r4
     9ba:	8d 93       	st	X+, r24
     9bc:	2d 01       	movw	r4, r26
     9be:	bf ef       	ldi	r27, 0xFF	; 255
     9c0:	6b 1a       	sub	r6, r27
     9c2:	7b 0a       	sbc	r7, r27
     9c4:	88 23       	and	r24, r24
     9c6:	31 f0       	breq	.+12     	; 0x9d4 <__stack+0x175>
     9c8:	ef ef       	ldi	r30, 0xFF	; 255
     9ca:	8e 1a       	sub	r8, r30
     9cc:	9e 0a       	sbc	r9, r30
     9ce:	9a cd       	rjmp	.-1228   	; 0x504 <strftime+0x30>
     9d0:	d2 01       	movw	r26, r4
     9d2:	1c 92       	st	X, r1
     9d4:	c3 01       	movw	r24, r6
     9d6:	a2 96       	adiw	r28, 0x22	; 34
     9d8:	e2 e1       	ldi	r30, 0x12	; 18
     9da:	0c 94 f0 15 	jmp	0x2be0	; 0x2be0 <__epilogue_restores__>

000009de <week_of_year>:
     9de:	fc 01       	movw	r30, r24
     9e0:	20 85       	ldd	r18, Z+8	; 0x08
     9e2:	31 85       	ldd	r19, Z+9	; 0x09
     9e4:	c9 01       	movw	r24, r18
     9e6:	07 96       	adiw	r24, 0x07	; 7
     9e8:	44 81       	ldd	r20, Z+4	; 0x04
     9ea:	84 1b       	sub	r24, r20
     9ec:	91 09       	sbc	r25, r1
     9ee:	47 fd       	sbrc	r20, 7
     9f0:	93 95       	inc	r25
     9f2:	86 0f       	add	r24, r22
     9f4:	91 1d       	adc	r25, r1
     9f6:	e7 e0       	ldi	r30, 0x07	; 7
     9f8:	f0 e0       	ldi	r31, 0x00	; 0
     9fa:	bf 01       	movw	r22, r30
     9fc:	0e 94 6d 15 	call	0x2ada	; 0x2ada <__divmodhi4>
     a00:	a9 01       	movw	r20, r18
     a02:	48 1b       	sub	r20, r24
     a04:	59 0b       	sbc	r21, r25
     a06:	ca 01       	movw	r24, r20
     a08:	57 fd       	sbrc	r21, 7
     a0a:	06 c0       	rjmp	.+12     	; 0xa18 <week_of_year+0x3a>
     a0c:	bf 01       	movw	r22, r30
     a0e:	0e 94 6d 15 	call	0x2ada	; 0x2ada <__divmodhi4>
     a12:	81 e0       	ldi	r24, 0x01	; 1
     a14:	86 0f       	add	r24, r22
     a16:	08 95       	ret
     a18:	80 e0       	ldi	r24, 0x00	; 0
     a1a:	08 95       	ret

00000a1c <asctime_r>:
     a1c:	a0 e0       	ldi	r26, 0x00	; 0
     a1e:	b0 e0       	ldi	r27, 0x00	; 0
     a20:	e4 e1       	ldi	r30, 0x14	; 20
     a22:	f5 e0       	ldi	r31, 0x05	; 5
     a24:	0c 94 de 15 	jmp	0x2bbc	; 0x2bbc <__prologue_saves__+0x14>
     a28:	8c 01       	movw	r16, r24
     a2a:	eb 01       	movw	r28, r22
     a2c:	fc 01       	movw	r30, r24
     a2e:	84 81       	ldd	r24, Z+4	; 0x04
     a30:	68 2f       	mov	r22, r24
     a32:	66 0f       	add	r22, r22
     a34:	68 0f       	add	r22, r24
     a36:	85 81       	ldd	r24, Z+5	; 0x05
     a38:	58 2f       	mov	r21, r24
     a3a:	55 0f       	add	r21, r21
     a3c:	58 0f       	add	r21, r24
     a3e:	9e 01       	movw	r18, r28
     a40:	40 e0       	ldi	r20, 0x00	; 0
     a42:	86 2f       	mov	r24, r22
     a44:	84 0f       	add	r24, r20
     a46:	90 e0       	ldi	r25, 0x00	; 0
     a48:	a0 e0       	ldi	r26, 0x00	; 0
     a4a:	85 56       	subi	r24, 0x65	; 101
     a4c:	9d 4f       	sbci	r25, 0xFD	; 253
     a4e:	af 4f       	sbci	r26, 0xFF	; 255
     a50:	fc 01       	movw	r30, r24
     a52:	84 91       	lpm	r24, Z
     a54:	a7 fd       	sbrc	r26, 7
     a56:	80 81       	ld	r24, Z
     a58:	f9 01       	movw	r30, r18
     a5a:	81 93       	st	Z+, r24
     a5c:	9f 01       	movw	r18, r30
     a5e:	85 2f       	mov	r24, r21
     a60:	84 0f       	add	r24, r20
     a62:	90 e0       	ldi	r25, 0x00	; 0
     a64:	a0 e0       	ldi	r26, 0x00	; 0
     a66:	8f 54       	subi	r24, 0x4F	; 79
     a68:	9d 4f       	sbci	r25, 0xFD	; 253
     a6a:	af 4f       	sbci	r26, 0xFF	; 255
     a6c:	fc 01       	movw	r30, r24
     a6e:	84 91       	lpm	r24, Z
     a70:	a7 fd       	sbrc	r26, 7
     a72:	80 81       	ld	r24, Z
     a74:	f9 01       	movw	r30, r18
     a76:	83 83       	std	Z+3, r24	; 0x03
     a78:	4f 5f       	subi	r20, 0xFF	; 255
     a7a:	43 30       	cpi	r20, 0x03	; 3
     a7c:	11 f7       	brne	.-60     	; 0xa42 <asctime_r+0x26>
     a7e:	80 e2       	ldi	r24, 0x20	; 32
     a80:	8f 83       	std	Y+7, r24	; 0x07
     a82:	8b 83       	std	Y+3, r24	; 0x03
     a84:	be 01       	movw	r22, r28
     a86:	68 5f       	subi	r22, 0xF8	; 248
     a88:	7f 4f       	sbci	r23, 0xFF	; 255
     a8a:	f8 01       	movw	r30, r16
     a8c:	83 81       	ldd	r24, Z+3	; 0x03
     a8e:	40 e2       	ldi	r20, 0x20	; 32
     a90:	08 2e       	mov	r0, r24
     a92:	00 0c       	add	r0, r0
     a94:	99 0b       	sbc	r25, r25
     a96:	0e 94 72 07 	call	0xee4	; 0xee4 <__print_lz>
     a9a:	be 01       	movw	r22, r28
     a9c:	65 5f       	subi	r22, 0xF5	; 245
     a9e:	7f 4f       	sbci	r23, 0xFF	; 255
     aa0:	f8 01       	movw	r30, r16
     aa2:	82 81       	ldd	r24, Z+2	; 0x02
     aa4:	4a e3       	ldi	r20, 0x3A	; 58
     aa6:	08 2e       	mov	r0, r24
     aa8:	00 0c       	add	r0, r0
     aaa:	99 0b       	sbc	r25, r25
     aac:	0e 94 72 07 	call	0xee4	; 0xee4 <__print_lz>
     ab0:	be 01       	movw	r22, r28
     ab2:	62 5f       	subi	r22, 0xF2	; 242
     ab4:	7f 4f       	sbci	r23, 0xFF	; 255
     ab6:	f8 01       	movw	r30, r16
     ab8:	81 81       	ldd	r24, Z+1	; 0x01
     aba:	4a e3       	ldi	r20, 0x3A	; 58
     abc:	08 2e       	mov	r0, r24
     abe:	00 0c       	add	r0, r0
     ac0:	99 0b       	sbc	r25, r25
     ac2:	0e 94 72 07 	call	0xee4	; 0xee4 <__print_lz>
     ac6:	be 01       	movw	r22, r28
     ac8:	6f 5e       	subi	r22, 0xEF	; 239
     aca:	7f 4f       	sbci	r23, 0xFF	; 255
     acc:	f8 01       	movw	r30, r16
     ace:	80 81       	ld	r24, Z
     ad0:	40 e2       	ldi	r20, 0x20	; 32
     ad2:	08 2e       	mov	r0, r24
     ad4:	00 0c       	add	r0, r0
     ad6:	99 0b       	sbc	r25, r25
     ad8:	0e 94 72 07 	call	0xee4	; 0xee4 <__print_lz>
     adc:	f8 01       	movw	r30, r16
     ade:	86 81       	ldd	r24, Z+6	; 0x06
     ae0:	97 81       	ldd	r25, Z+7	; 0x07
     ae2:	64 e6       	ldi	r22, 0x64	; 100
     ae4:	70 e0       	ldi	r23, 0x00	; 0
     ae6:	84 59       	subi	r24, 0x94	; 148
     ae8:	98 4f       	sbci	r25, 0xF8	; 248
     aea:	0e 94 6d 15 	call	0x2ada	; 0x2ada <__divmodhi4>
     aee:	6b 01       	movw	r12, r22
     af0:	7c 01       	movw	r14, r24
     af2:	be 01       	movw	r22, r28
     af4:	6c 5e       	subi	r22, 0xEC	; 236
     af6:	7f 4f       	sbci	r23, 0xFF	; 255
     af8:	40 e2       	ldi	r20, 0x20	; 32
     afa:	c6 01       	movw	r24, r12
     afc:	0e 94 72 07 	call	0xee4	; 0xee4 <__print_lz>
     b00:	be 01       	movw	r22, r28
     b02:	6a 5e       	subi	r22, 0xEA	; 234
     b04:	7f 4f       	sbci	r23, 0xFF	; 255
     b06:	40 e0       	ldi	r20, 0x00	; 0
     b08:	c7 01       	movw	r24, r14
     b0a:	0e 94 72 07 	call	0xee4	; 0xee4 <__print_lz>
     b0e:	cd b7       	in	r28, 0x3d	; 61
     b10:	de b7       	in	r29, 0x3e	; 62
     b12:	e8 e0       	ldi	r30, 0x08	; 8
     b14:	0c 94 fa 15 	jmp	0x2bf4	; 0x2bf4 <__epilogue_restores__+0x14>

00000b18 <gmtime_r>:
     b18:	a8 e0       	ldi	r26, 0x08	; 8
     b1a:	b0 e0       	ldi	r27, 0x00	; 0
     b1c:	e2 e9       	ldi	r30, 0x92	; 146
     b1e:	f5 e0       	ldi	r31, 0x05	; 5
     b20:	0c 94 de 15 	jmp	0x2bbc	; 0x2bbc <__prologue_saves__+0x14>
     b24:	8b 01       	movw	r16, r22
     b26:	fc 01       	movw	r30, r24
     b28:	60 81       	ld	r22, Z
     b2a:	71 81       	ldd	r23, Z+1	; 0x01
     b2c:	82 81       	ldd	r24, Z+2	; 0x02
     b2e:	93 81       	ldd	r25, Z+3	; 0x03
     b30:	20 e8       	ldi	r18, 0x80	; 128
     b32:	31 e5       	ldi	r19, 0x51	; 81
     b34:	41 e0       	ldi	r20, 0x01	; 1
     b36:	50 e0       	ldi	r21, 0x00	; 0
     b38:	0e 94 81 15 	call	0x2b02	; 0x2b02 <__udivmodsi4>
     b3c:	69 01       	movw	r12, r18
     b3e:	7a 01       	movw	r14, r20
     b40:	2c e3       	ldi	r18, 0x3C	; 60
     b42:	30 e0       	ldi	r19, 0x00	; 0
     b44:	40 e0       	ldi	r20, 0x00	; 0
     b46:	50 e0       	ldi	r21, 0x00	; 0
     b48:	0e 94 a3 15 	call	0x2b46	; 0x2b46 <__divmodsi4>
     b4c:	29 83       	std	Y+1, r18	; 0x01
     b4e:	3a 83       	std	Y+2, r19	; 0x02
     b50:	4b 83       	std	Y+3, r20	; 0x03
     b52:	5c 83       	std	Y+4, r21	; 0x04
     b54:	89 81       	ldd	r24, Y+1	; 0x01
     b56:	9a 81       	ldd	r25, Y+2	; 0x02
     b58:	ab 81       	ldd	r26, Y+3	; 0x03
     b5a:	bc 81       	ldd	r27, Y+4	; 0x04
     b5c:	f8 01       	movw	r30, r16
     b5e:	60 83       	st	Z, r22
     b60:	6c e3       	ldi	r22, 0x3C	; 60
     b62:	70 e0       	ldi	r23, 0x00	; 0
     b64:	0e 94 6d 15 	call	0x2ada	; 0x2ada <__divmodhi4>
     b68:	dc 01       	movw	r26, r24
     b6a:	cb 01       	movw	r24, r22
     b6c:	f8 01       	movw	r30, r16
     b6e:	a1 83       	std	Z+1, r26	; 0x01
     b70:	82 83       	std	Z+2, r24	; 0x02
     b72:	c6 01       	movw	r24, r12
     b74:	06 96       	adiw	r24, 0x06	; 6
     b76:	67 e0       	ldi	r22, 0x07	; 7
     b78:	70 e0       	ldi	r23, 0x00	; 0
     b7a:	0e 94 59 15 	call	0x2ab2	; 0x2ab2 <__udivmodhi4>
     b7e:	84 83       	std	Z+4, r24	; 0x04
     b80:	2d ea       	ldi	r18, 0xAD	; 173
     b82:	3e e8       	ldi	r19, 0x8E	; 142
     b84:	40 e0       	ldi	r20, 0x00	; 0
     b86:	50 e0       	ldi	r21, 0x00	; 0
     b88:	c7 01       	movw	r24, r14
     b8a:	b6 01       	movw	r22, r12
     b8c:	0e 94 a3 15 	call	0x2b46	; 0x2b46 <__divmodsi4>
     b90:	29 83       	std	Y+1, r18	; 0x01
     b92:	3a 83       	std	Y+2, r19	; 0x02
     b94:	6d 83       	std	Y+5, r22	; 0x05
     b96:	7e 83       	std	Y+6, r23	; 0x06
     b98:	8f 83       	std	Y+7, r24	; 0x07
     b9a:	98 87       	std	Y+8, r25	; 0x08
     b9c:	89 81       	ldd	r24, Y+1	; 0x01
     b9e:	9a 81       	ldd	r25, Y+2	; 0x02
     ba0:	24 e6       	ldi	r18, 0x64	; 100
     ba2:	28 9f       	mul	r18, r24
     ba4:	60 01       	movw	r12, r0
     ba6:	29 9f       	mul	r18, r25
     ba8:	d0 0c       	add	r13, r0
     baa:	11 24       	eor	r1, r1
     bac:	6d 81       	ldd	r22, Y+5	; 0x05
     bae:	7e 81       	ldd	r23, Y+6	; 0x06
     bb0:	8f 81       	ldd	r24, Y+7	; 0x07
     bb2:	98 85       	ldd	r25, Y+8	; 0x08
     bb4:	25 eb       	ldi	r18, 0xB5	; 181
     bb6:	35 e0       	ldi	r19, 0x05	; 5
     bb8:	40 e0       	ldi	r20, 0x00	; 0
     bba:	50 e0       	ldi	r21, 0x00	; 0
     bbc:	0e 94 a3 15 	call	0x2b46	; 0x2b46 <__divmodsi4>
     bc0:	29 83       	std	Y+1, r18	; 0x01
     bc2:	3a 83       	std	Y+2, r19	; 0x02
     bc4:	6d 83       	std	Y+5, r22	; 0x05
     bc6:	7e 83       	std	Y+6, r23	; 0x06
     bc8:	e9 80       	ldd	r14, Y+1	; 0x01
     bca:	fa 80       	ldd	r15, Y+2	; 0x02
     bcc:	ee 0c       	add	r14, r14
     bce:	ff 1c       	adc	r15, r15
     bd0:	ee 0c       	add	r14, r14
     bd2:	ff 1c       	adc	r15, r15
     bd4:	ec 0c       	add	r14, r12
     bd6:	fd 1c       	adc	r15, r13
     bd8:	8d 81       	ldd	r24, Y+5	; 0x05
     bda:	9e 81       	ldd	r25, Y+6	; 0x06
     bdc:	f5 e6       	ldi	r31, 0x65	; 101
     bde:	ef 16       	cp	r14, r31
     be0:	f1 04       	cpc	r15, r1
     be2:	10 f0       	brcs	.+4      	; 0xbe8 <gmtime_r+0xd0>
     be4:	01 96       	adiw	r24, 0x01	; 1
     be6:	04 c0       	rjmp	.+8      	; 0xbf0 <gmtime_r+0xd8>
     be8:	24 e6       	ldi	r18, 0x64	; 100
     bea:	e2 16       	cp	r14, r18
     bec:	f1 04       	cpc	r15, r1
     bee:	19 f0       	breq	.+6      	; 0xbf6 <gmtime_r+0xde>
     bf0:	21 e0       	ldi	r18, 0x01	; 1
     bf2:	30 e0       	ldi	r19, 0x00	; 0
     bf4:	02 c0       	rjmp	.+4      	; 0xbfa <gmtime_r+0xe2>
     bf6:	20 e0       	ldi	r18, 0x00	; 0
     bf8:	30 e0       	ldi	r19, 0x00	; 0
     bfa:	a9 01       	movw	r20, r18
     bfc:	44 59       	subi	r20, 0x94	; 148
     bfe:	5e 4f       	sbci	r21, 0xFE	; 254
     c00:	48 17       	cp	r20, r24
     c02:	59 07       	cpc	r21, r25
     c04:	68 f4       	brcc	.+26     	; 0xc20 <gmtime_r+0x108>
     c06:	6d e6       	ldi	r22, 0x6D	; 109
     c08:	71 e0       	ldi	r23, 0x01	; 1
     c0a:	82 1b       	sub	r24, r18
     c0c:	93 0b       	sbc	r25, r19
     c0e:	0e 94 6d 15 	call	0x2ada	; 0x2ada <__divmodhi4>
     c12:	dc 01       	movw	r26, r24
     c14:	cb 01       	movw	r24, r22
     c16:	e8 0e       	add	r14, r24
     c18:	f9 1e       	adc	r15, r25
     c1a:	cd 01       	movw	r24, r26
     c1c:	20 e0       	ldi	r18, 0x00	; 0
     c1e:	30 e0       	ldi	r19, 0x00	; 0
     c20:	44 e6       	ldi	r20, 0x64	; 100
     c22:	e4 0e       	add	r14, r20
     c24:	f1 1c       	adc	r15, r1
     c26:	f8 01       	movw	r30, r16
     c28:	f7 82       	std	Z+7, r15	; 0x07
     c2a:	e6 82       	std	Z+6, r14	; 0x06
     c2c:	91 87       	std	Z+9, r25	; 0x09
     c2e:	80 87       	std	Z+8, r24	; 0x08
     c30:	25 5c       	subi	r18, 0xC5	; 197
     c32:	3f 4f       	sbci	r19, 0xFF	; 255
     c34:	82 17       	cp	r24, r18
     c36:	93 07       	cpc	r25, r19
     c38:	48 f4       	brcc	.+18     	; 0xc4c <gmtime_r+0x134>
     c3a:	6f e1       	ldi	r22, 0x1F	; 31
     c3c:	70 e0       	ldi	r23, 0x00	; 0
     c3e:	0e 94 6d 15 	call	0x2ada	; 0x2ada <__divmodhi4>
     c42:	dc 01       	movw	r26, r24
     c44:	cb 01       	movw	r24, r22
     c46:	f8 01       	movw	r30, r16
     c48:	85 83       	std	Z+5, r24	; 0x05
     c4a:	22 c0       	rjmp	.+68     	; 0xc90 <gmtime_r+0x178>
     c4c:	69 e9       	ldi	r22, 0x99	; 153
     c4e:	70 e0       	ldi	r23, 0x00	; 0
     c50:	82 1b       	sub	r24, r18
     c52:	93 0b       	sbc	r25, r19
     c54:	0e 94 6d 15 	call	0x2ada	; 0x2ada <__divmodhi4>
     c58:	dc 01       	movw	r26, r24
     c5a:	cb 01       	movw	r24, r22
     c5c:	f8 2e       	mov	r15, r24
     c5e:	ff 0c       	add	r15, r15
     c60:	ff 0c       	add	r15, r15
     c62:	f8 0e       	add	r15, r24
     c64:	6d e3       	ldi	r22, 0x3D	; 61
     c66:	70 e0       	ldi	r23, 0x00	; 0
     c68:	cd 01       	movw	r24, r26
     c6a:	0e 94 6d 15 	call	0x2ada	; 0x2ada <__divmodhi4>
     c6e:	dc 01       	movw	r26, r24
     c70:	cb 01       	movw	r24, r22
     c72:	e8 2e       	mov	r14, r24
     c74:	ee 0c       	add	r14, r14
     c76:	6f e1       	ldi	r22, 0x1F	; 31
     c78:	70 e0       	ldi	r23, 0x00	; 0
     c7a:	cd 01       	movw	r24, r26
     c7c:	0e 94 6d 15 	call	0x2ada	; 0x2ada <__divmodhi4>
     c80:	dc 01       	movw	r26, r24
     c82:	cb 01       	movw	r24, r22
     c84:	22 e0       	ldi	r18, 0x02	; 2
     c86:	28 0f       	add	r18, r24
     c88:	f2 0e       	add	r15, r18
     c8a:	fe 0c       	add	r15, r14
     c8c:	f8 01       	movw	r30, r16
     c8e:	f5 82       	std	Z+5, r15	; 0x05
     c90:	a3 83       	std	Z+3, r26	; 0x03
     c92:	f8 01       	movw	r30, r16
     c94:	13 86       	std	Z+11, r1	; 0x0b
     c96:	12 86       	std	Z+10, r1	; 0x0a
     c98:	83 81       	ldd	r24, Z+3	; 0x03
     c9a:	8f 5f       	subi	r24, 0xFF	; 255
     c9c:	83 83       	std	Z+3, r24	; 0x03
     c9e:	28 96       	adiw	r28, 0x08	; 8
     ca0:	e8 e0       	ldi	r30, 0x08	; 8
     ca2:	0c 94 fa 15 	jmp	0x2bf4	; 0x2bf4 <__epilogue_restores__+0x14>

00000ca6 <iso_week_date_r>:
     ca6:	a0 e0       	ldi	r26, 0x00	; 0
     ca8:	b0 e0       	ldi	r27, 0x00	; 0
     caa:	e9 e5       	ldi	r30, 0x59	; 89
     cac:	f6 e0       	ldi	r31, 0x06	; 6
     cae:	0c 94 de 15 	jmp	0x2bbc	; 0x2bbc <__prologue_saves__+0x14>
     cb2:	8c 01       	movw	r16, r24
     cb4:	7b 01       	movw	r14, r22
     cb6:	ea 01       	movw	r28, r20
     cb8:	99 83       	std	Y+1, r25	; 0x01
     cba:	88 83       	st	Y, r24
     cbc:	0e 94 84 07 	call	0xf08	; 0xf08 <is_leap_year>
     cc0:	28 2f       	mov	r18, r24
     cc2:	a8 01       	movw	r20, r16
     cc4:	40 5d       	subi	r20, 0xD0	; 208
     cc6:	57 40       	sbci	r21, 0x07	; 7
     cc8:	6d e6       	ldi	r22, 0x6D	; 109
     cca:	71 e0       	ldi	r23, 0x01	; 1
     ccc:	46 9f       	mul	r20, r22
     cce:	c0 01       	movw	r24, r0
     cd0:	47 9f       	mul	r20, r23
     cd2:	90 0d       	add	r25, r0
     cd4:	56 9f       	mul	r21, r22
     cd6:	90 0d       	add	r25, r0
     cd8:	11 24       	eor	r1, r1
     cda:	8e 0d       	add	r24, r14
     cdc:	9f 1d       	adc	r25, r15
     cde:	41 15       	cp	r20, r1
     ce0:	51 05       	cpc	r21, r1
     ce2:	79 f0       	breq	.+30     	; 0xd02 <iso_week_date_r+0x5c>
     ce4:	ba 01       	movw	r22, r20
     ce6:	76 95       	lsr	r23
     ce8:	67 95       	ror	r22
     cea:	76 95       	lsr	r23
     cec:	67 95       	ror	r22
     cee:	6f 5f       	subi	r22, 0xFF	; 255
     cf0:	7f 4f       	sbci	r23, 0xFF	; 255
     cf2:	86 0f       	add	r24, r22
     cf4:	97 1f       	adc	r25, r23
     cf6:	82 1b       	sub	r24, r18
     cf8:	91 09       	sbc	r25, r1
     cfa:	45 36       	cpi	r20, 0x65	; 101
     cfc:	51 05       	cpc	r21, r1
     cfe:	08 f0       	brcs	.+2      	; 0xd02 <iso_week_date_r+0x5c>
     d00:	01 97       	sbiw	r24, 0x01	; 1
     d02:	06 96       	adiw	r24, 0x06	; 6
     d04:	67 e0       	ldi	r22, 0x07	; 7
     d06:	70 e0       	ldi	r23, 0x00	; 0
     d08:	0e 94 59 15 	call	0x2ab2	; 0x2ab2 <__udivmodhi4>
     d0c:	6c 01       	movw	r12, r24
     d0e:	89 2b       	or	r24, r25
     d10:	19 f4       	brne	.+6      	; 0xd18 <iso_week_date_r+0x72>
     d12:	87 e0       	ldi	r24, 0x07	; 7
     d14:	c8 2e       	mov	r12, r24
     d16:	d1 2c       	mov	r13, r1
     d18:	dd 82       	std	Y+5, r13	; 0x05
     d1a:	cc 82       	std	Y+4, r12	; 0x04
     d1c:	c7 01       	movw	r24, r14
     d1e:	0b 96       	adiw	r24, 0x0b	; 11
     d20:	8c 19       	sub	r24, r12
     d22:	9d 09       	sbc	r25, r13
     d24:	67 e0       	ldi	r22, 0x07	; 7
     d26:	70 e0       	ldi	r23, 0x00	; 0
     d28:	0e 94 6d 15 	call	0x2ada	; 0x2ada <__divmodhi4>
     d2c:	65 33       	cpi	r22, 0x35	; 53
     d2e:	71 05       	cpc	r23, r1
     d30:	b1 f4       	brne	.+44     	; 0xd5e <iso_week_date_r+0xb8>
     d32:	81 e0       	ldi	r24, 0x01	; 1
     d34:	c8 1a       	sub	r12, r24
     d36:	d1 08       	sbc	r13, r1
     d38:	ec 18       	sub	r14, r12
     d3a:	fd 08       	sbc	r15, r13
     d3c:	82 2f       	mov	r24, r18
     d3e:	90 e0       	ldi	r25, 0x00	; 0
     d40:	84 59       	subi	r24, 0x94	; 148
     d42:	9e 4f       	sbci	r25, 0xFE	; 254
     d44:	23 e0       	ldi	r18, 0x03	; 3
     d46:	e2 0e       	add	r14, r18
     d48:	f1 1c       	adc	r15, r1
     d4a:	8e 15       	cp	r24, r14
     d4c:	9f 05       	cpc	r25, r15
     d4e:	3c f4       	brge	.+14     	; 0xd5e <iso_week_date_r+0xb8>
     d50:	88 81       	ld	r24, Y
     d52:	99 81       	ldd	r25, Y+1	; 0x01
     d54:	01 96       	adiw	r24, 0x01	; 1
     d56:	99 83       	std	Y+1, r25	; 0x01
     d58:	88 83       	st	Y, r24
     d5a:	61 e0       	ldi	r22, 0x01	; 1
     d5c:	70 e0       	ldi	r23, 0x00	; 0
     d5e:	7b 83       	std	Y+3, r23	; 0x03
     d60:	6a 83       	std	Y+2, r22	; 0x02
     d62:	67 2b       	or	r22, r23
     d64:	79 f4       	brne	.+30     	; 0xd84 <iso_week_date_r+0xde>
     d66:	01 50       	subi	r16, 0x01	; 1
     d68:	11 09       	sbc	r17, r1
     d6a:	c8 01       	movw	r24, r16
     d6c:	0e 94 84 07 	call	0xf08	; 0xf08 <is_leap_year>
     d70:	68 2f       	mov	r22, r24
     d72:	70 e0       	ldi	r23, 0x00	; 0
     d74:	64 59       	subi	r22, 0x94	; 148
     d76:	7e 4f       	sbci	r23, 0xFE	; 254
     d78:	ae 01       	movw	r20, r28
     d7a:	c8 01       	movw	r24, r16
     d7c:	0e 94 53 06 	call	0xca6	; 0xca6 <iso_week_date_r>
     d80:	dd 82       	std	Y+5, r13	; 0x05
     d82:	cc 82       	std	Y+4, r12	; 0x04
     d84:	cd b7       	in	r28, 0x3d	; 61
     d86:	de b7       	in	r29, 0x3e	; 62
     d88:	e8 e0       	ldi	r30, 0x08	; 8
     d8a:	0c 94 fa 15 	jmp	0x2bf4	; 0x2bf4 <__epilogue_restores__+0x14>

00000d8e <mk_gmtime>:
     d8e:	a0 e0       	ldi	r26, 0x00	; 0
     d90:	b0 e0       	ldi	r27, 0x00	; 0
     d92:	ed ec       	ldi	r30, 0xCD	; 205
     d94:	f6 e0       	ldi	r31, 0x06	; 6
     d96:	0c 94 da 15 	jmp	0x2bb4	; 0x2bb4 <__prologue_saves__+0xc>
     d9a:	ec 01       	movw	r28, r24
     d9c:	ee 81       	ldd	r30, Y+6	; 0x06
     d9e:	ff 81       	ldd	r31, Y+7	; 0x07
     da0:	8f 01       	movw	r16, r30
     da2:	04 56       	subi	r16, 0x64	; 100
     da4:	11 09       	sbc	r17, r1
     da6:	b9 f0       	breq	.+46     	; 0xdd6 <mk_gmtime+0x48>
     da8:	cf 01       	movw	r24, r30
     daa:	85 56       	subi	r24, 0x65	; 101
     dac:	91 09       	sbc	r25, r1
     dae:	6c 01       	movw	r12, r24
     db0:	97 ff       	sbrs	r25, 7
     db2:	03 c0       	rjmp	.+6      	; 0xdba <mk_gmtime+0x2c>
     db4:	23 e0       	ldi	r18, 0x03	; 3
     db6:	c2 0e       	add	r12, r18
     db8:	d1 1c       	adc	r13, r1
     dba:	d5 94       	asr	r13
     dbc:	c7 94       	ror	r12
     dbe:	d5 94       	asr	r13
     dc0:	c7 94       	ror	r12
     dc2:	6c e9       	ldi	r22, 0x9C	; 156
     dc4:	7f ef       	ldi	r23, 0xFF	; 255
     dc6:	0e 94 6d 15 	call	0x2ada	; 0x2ada <__divmodhi4>
     dca:	c6 0e       	add	r12, r22
     dcc:	d7 1e       	adc	r13, r23
     dce:	8f ef       	ldi	r24, 0xFF	; 255
     dd0:	c8 1a       	sub	r12, r24
     dd2:	d8 0a       	sbc	r13, r24
     dd4:	02 c0       	rjmp	.+4      	; 0xdda <mk_gmtime+0x4c>
     dd6:	c1 2c       	mov	r12, r1
     dd8:	d1 2c       	mov	r13, r1
     dda:	2d e6       	ldi	r18, 0x6D	; 109
     ddc:	31 e0       	ldi	r19, 0x01	; 1
     dde:	d8 01       	movw	r26, r16
     de0:	0e 94 c2 15 	call	0x2b84	; 0x2b84 <__usmulhisi3>
     de4:	0d 2c       	mov	r0, r13
     de6:	00 0c       	add	r0, r0
     de8:	ee 08       	sbc	r14, r14
     dea:	ff 08       	sbc	r15, r15
     dec:	c6 0e       	add	r12, r22
     dee:	d7 1e       	adc	r13, r23
     df0:	e8 1e       	adc	r14, r24
     df2:	f9 1e       	adc	r15, r25
     df4:	8b 81       	ldd	r24, Y+3	; 0x03
     df6:	08 2e       	mov	r0, r24
     df8:	00 0c       	add	r0, r0
     dfa:	99 0b       	sbc	r25, r25
     dfc:	8c 01       	movw	r16, r24
     dfe:	01 50       	subi	r16, 0x01	; 1
     e00:	11 09       	sbc	r17, r1
     e02:	2d 81       	ldd	r18, Y+5	; 0x05
     e04:	22 30       	cpi	r18, 0x02	; 2
     e06:	2c f4       	brge	.+10     	; 0xe12 <mk_gmtime+0x84>
     e08:	22 23       	and	r18, r18
     e0a:	79 f1       	breq	.+94     	; 0xe6a <mk_gmtime+0xdc>
     e0c:	01 5e       	subi	r16, 0xE1	; 225
     e0e:	1f 4f       	sbci	r17, 0xFF	; 255
     e10:	2c c0       	rjmp	.+88     	; 0xe6a <mk_gmtime+0xdc>
     e12:	cf 01       	movw	r24, r30
     e14:	84 59       	subi	r24, 0x94	; 148
     e16:	98 4f       	sbci	r25, 0xF8	; 248
     e18:	0e 94 84 07 	call	0xf08	; 0xf08 <is_leap_year>
     e1c:	28 2f       	mov	r18, r24
     e1e:	30 e0       	ldi	r19, 0x00	; 0
     e20:	25 5c       	subi	r18, 0xC5	; 197
     e22:	3f 4f       	sbci	r19, 0xFF	; 255
     e24:	20 0f       	add	r18, r16
     e26:	31 1f       	adc	r19, r17
     e28:	8d 81       	ldd	r24, Y+5	; 0x05
     e2a:	08 2e       	mov	r0, r24
     e2c:	00 0c       	add	r0, r0
     e2e:	99 0b       	sbc	r25, r25
     e30:	02 97       	sbiw	r24, 0x02	; 2
     e32:	85 30       	cpi	r24, 0x05	; 5
     e34:	91 05       	cpc	r25, r1
     e36:	14 f0       	brlt	.+4      	; 0xe3c <mk_gmtime+0xae>
     e38:	27 56       	subi	r18, 0x67	; 103
     e3a:	3f 4f       	sbci	r19, 0xFF	; 255
     e3c:	65 e0       	ldi	r22, 0x05	; 5
     e3e:	70 e0       	ldi	r23, 0x00	; 0
     e40:	0e 94 6d 15 	call	0x2ada	; 0x2ada <__divmodhi4>
     e44:	ac 01       	movw	r20, r24
     e46:	97 ff       	sbrs	r25, 7
     e48:	02 c0       	rjmp	.+4      	; 0xe4e <mk_gmtime+0xc0>
     e4a:	4f 5f       	subi	r20, 0xFF	; 255
     e4c:	5f 4f       	sbci	r21, 0xFF	; 255
     e4e:	55 95       	asr	r21
     e50:	47 95       	ror	r20
     e52:	9d e3       	ldi	r25, 0x3D	; 61
     e54:	94 9f       	mul	r25, r20
     e56:	80 01       	movw	r16, r0
     e58:	95 9f       	mul	r25, r21
     e5a:	10 0d       	add	r17, r0
     e5c:	11 24       	eor	r1, r1
     e5e:	02 0f       	add	r16, r18
     e60:	13 1f       	adc	r17, r19
     e62:	80 ff       	sbrs	r24, 0
     e64:	02 c0       	rjmp	.+4      	; 0xe6a <mk_gmtime+0xdc>
     e66:	01 5e       	subi	r16, 0xE1	; 225
     e68:	1f 4f       	sbci	r17, 0xFF	; 255
     e6a:	c8 01       	movw	r24, r16
     e6c:	11 0f       	add	r17, r17
     e6e:	aa 0b       	sbc	r26, r26
     e70:	bb 0b       	sbc	r27, r27
     e72:	9c 01       	movw	r18, r24
     e74:	ad 01       	movw	r20, r26
     e76:	2c 0d       	add	r18, r12
     e78:	3d 1d       	adc	r19, r13
     e7a:	4e 1d       	adc	r20, r14
     e7c:	5f 1d       	adc	r21, r15
     e7e:	60 e8       	ldi	r22, 0x80	; 128
     e80:	71 e5       	ldi	r23, 0x51	; 81
     e82:	81 e0       	ldi	r24, 0x01	; 1
     e84:	90 e0       	ldi	r25, 0x00	; 0
     e86:	0e 94 3b 15 	call	0x2a76	; 0x2a76 <__mulsi3>
     e8a:	4b 01       	movw	r8, r22
     e8c:	5c 01       	movw	r10, r24
     e8e:	aa 81       	ldd	r26, Y+2	; 0x02
     e90:	0a 2e       	mov	r0, r26
     e92:	00 0c       	add	r0, r0
     e94:	bb 0b       	sbc	r27, r27
     e96:	20 e1       	ldi	r18, 0x10	; 16
     e98:	3e e0       	ldi	r19, 0x0E	; 14
     e9a:	0e 94 c2 15 	call	0x2b84	; 0x2b84 <__usmulhisi3>
     e9e:	6b 01       	movw	r12, r22
     ea0:	7c 01       	movw	r14, r24
     ea2:	a9 81       	ldd	r26, Y+1	; 0x01
     ea4:	0a 2e       	mov	r0, r26
     ea6:	00 0c       	add	r0, r0
     ea8:	bb 0b       	sbc	r27, r27
     eaa:	2c e3       	ldi	r18, 0x3C	; 60
     eac:	30 e0       	ldi	r19, 0x00	; 0
     eae:	0e 94 c2 15 	call	0x2b84	; 0x2b84 <__usmulhisi3>
     eb2:	c6 0e       	add	r12, r22
     eb4:	d7 1e       	adc	r13, r23
     eb6:	e8 1e       	adc	r14, r24
     eb8:	f9 1e       	adc	r15, r25
     eba:	68 81       	ld	r22, Y
     ebc:	86 2f       	mov	r24, r22
     ebe:	66 0f       	add	r22, r22
     ec0:	99 0b       	sbc	r25, r25
     ec2:	aa 0b       	sbc	r26, r26
     ec4:	bb 0b       	sbc	r27, r27
     ec6:	8c 0d       	add	r24, r12
     ec8:	9d 1d       	adc	r25, r13
     eca:	ae 1d       	adc	r26, r14
     ecc:	bf 1d       	adc	r27, r15
     ece:	bc 01       	movw	r22, r24
     ed0:	cd 01       	movw	r24, r26
     ed2:	68 0d       	add	r22, r8
     ed4:	79 1d       	adc	r23, r9
     ed6:	8a 1d       	adc	r24, r10
     ed8:	9b 1d       	adc	r25, r11
     eda:	cd b7       	in	r28, 0x3d	; 61
     edc:	de b7       	in	r29, 0x3e	; 62
     ede:	ec e0       	ldi	r30, 0x0C	; 12
     ee0:	0c 94 f6 15 	jmp	0x2bec	; 0x2bec <__epilogue_restores__+0xc>

00000ee4 <__print_lz>:
     ee4:	1f 93       	push	r17
     ee6:	cf 93       	push	r28
     ee8:	df 93       	push	r29
     eea:	eb 01       	movw	r28, r22
     eec:	14 2f       	mov	r17, r20
     eee:	6a e0       	ldi	r22, 0x0A	; 10
     ef0:	70 e0       	ldi	r23, 0x00	; 0
     ef2:	0e 94 6d 15 	call	0x2ada	; 0x2ada <__divmodhi4>
     ef6:	60 5d       	subi	r22, 0xD0	; 208
     ef8:	68 83       	st	Y, r22
     efa:	80 5d       	subi	r24, 0xD0	; 208
     efc:	89 83       	std	Y+1, r24	; 0x01
     efe:	1a 83       	std	Y+2, r17	; 0x02
     f00:	df 91       	pop	r29
     f02:	cf 91       	pop	r28
     f04:	1f 91       	pop	r17
     f06:	08 95       	ret

00000f08 <is_leap_year>:
     f08:	9c 01       	movw	r18, r24
     f0a:	23 70       	andi	r18, 0x03	; 3
     f0c:	33 27       	eor	r19, r19
     f0e:	23 2b       	or	r18, r19
     f10:	59 f4       	brne	.+22     	; 0xf28 <is_leap_year+0x20>
     f12:	64 e6       	ldi	r22, 0x64	; 100
     f14:	70 e0       	ldi	r23, 0x00	; 0
     f16:	0e 94 6d 15 	call	0x2ada	; 0x2ada <__divmodhi4>
     f1a:	89 2b       	or	r24, r25
     f1c:	39 f4       	brne	.+14     	; 0xf2c <is_leap_year+0x24>
     f1e:	63 70       	andi	r22, 0x03	; 3
     f20:	77 27       	eor	r23, r23
     f22:	81 e0       	ldi	r24, 0x01	; 1
     f24:	67 2b       	or	r22, r23
     f26:	19 f0       	breq	.+6      	; 0xf2e <is_leap_year+0x26>
     f28:	80 e0       	ldi	r24, 0x00	; 0
     f2a:	08 95       	ret
     f2c:	81 e0       	ldi	r24, 0x01	; 1
     f2e:	08 95       	ret

00000f30 <adc_init>:
     f30:	86 b1       	in	r24, 0x06	; 6
     f32:	80 68       	ori	r24, 0x80	; 128
     f34:	86 b9       	out	0x06, r24	; 6
     f36:	86 b1       	in	r24, 0x06	; 6
     f38:	87 60       	ori	r24, 0x07	; 7
     f3a:	86 b9       	out	0x06, r24	; 6
     f3c:	87 b1       	in	r24, 0x07	; 7
     f3e:	80 64       	ori	r24, 0x40	; 64
     f40:	87 b9       	out	0x07, r24	; 7
     f42:	08 95       	ret

00000f44 <adc_channel_select>:
     f44:	97 b1       	in	r25, 0x07	; 7
     f46:	90 7c       	andi	r25, 0xC0	; 192
     f48:	97 b9       	out	0x07, r25	; 7
     f4a:	48 2f       	mov	r20, r24
     f4c:	50 e0       	ldi	r21, 0x00	; 0
     f4e:	48 30       	cpi	r20, 0x08	; 8
     f50:	51 05       	cpc	r21, r1
     f52:	08 f5       	brcc	.+66     	; 0xf96 <adc_channel_select+0x52>
     f54:	fa 01       	movw	r30, r20
     f56:	e6 5d       	subi	r30, 0xD6	; 214
     f58:	ff 4f       	sbci	r31, 0xFF	; 255
     f5a:	0c 94 d8 0e 	jmp	0x1db0	; 0x1db0 <__tablejump2__>
     f5e:	87 b1       	in	r24, 0x07	; 7
     f60:	81 60       	ori	r24, 0x01	; 1
     f62:	87 b9       	out	0x07, r24	; 7
     f64:	08 95       	ret
     f66:	87 b1       	in	r24, 0x07	; 7
     f68:	82 60       	ori	r24, 0x02	; 2
     f6a:	87 b9       	out	0x07, r24	; 7
     f6c:	08 95       	ret
     f6e:	87 b1       	in	r24, 0x07	; 7
     f70:	83 60       	ori	r24, 0x03	; 3
     f72:	87 b9       	out	0x07, r24	; 7
     f74:	08 95       	ret
     f76:	87 b1       	in	r24, 0x07	; 7
     f78:	84 60       	ori	r24, 0x04	; 4
     f7a:	87 b9       	out	0x07, r24	; 7
     f7c:	08 95       	ret
     f7e:	87 b1       	in	r24, 0x07	; 7
     f80:	85 60       	ori	r24, 0x05	; 5
     f82:	87 b9       	out	0x07, r24	; 7
     f84:	08 95       	ret
     f86:	87 b1       	in	r24, 0x07	; 7
     f88:	86 60       	ori	r24, 0x06	; 6
     f8a:	87 b9       	out	0x07, r24	; 7
     f8c:	08 95       	ret
     f8e:	87 b1       	in	r24, 0x07	; 7
     f90:	87 60       	ori	r24, 0x07	; 7
     f92:	87 b9       	out	0x07, r24	; 7
     f94:	08 95       	ret
     f96:	97 b1       	in	r25, 0x07	; 7
     f98:	8f 71       	andi	r24, 0x1F	; 31
     f9a:	89 2b       	or	r24, r25
     f9c:	87 b9       	out	0x07, r24	; 7
     f9e:	08 95       	ret

00000fa0 <adc_read>:
     fa0:	0e 94 a2 07 	call	0xf44	; 0xf44 <adc_channel_select>
     fa4:	86 b1       	in	r24, 0x06	; 6
     fa6:	80 64       	ori	r24, 0x40	; 64
     fa8:	86 b9       	out	0x06, r24	; 6
     faa:	86 b1       	in	r24, 0x06	; 6
     fac:	84 b1       	in	r24, 0x04	; 4
     fae:	95 b1       	in	r25, 0x05	; 5
	#else
		//round up by default
		__ticks_dc = (uint32_t)(ceil(fabs(__tmp)));
	#endif

	__builtin_avr_delay_cycles(__ticks_dc);
     fb0:	8f e3       	ldi	r24, 0x3F	; 63
     fb2:	9f e1       	ldi	r25, 0x1F	; 31
     fb4:	01 97       	sbiw	r24, 0x01	; 1
     fb6:	f1 f7       	brne	.-4      	; 0xfb4 <adc_read+0x14>
     fb8:	00 c0       	rjmp	.+0      	; 0xfba <adc_read+0x1a>
     fba:	00 00       	nop
     fbc:	86 b1       	in	r24, 0x06	; 6
     fbe:	80 64       	ori	r24, 0x40	; 64
     fc0:	86 b9       	out	0x06, r24	; 6
     fc2:	86 b1       	in	r24, 0x06	; 6
     fc4:	84 b1       	in	r24, 0x04	; 4
     fc6:	95 b1       	in	r25, 0x05	; 5
     fc8:	08 95       	ret

00000fca <adc_readvoltage>:
     fca:	0e 94 d0 07 	call	0xfa0	; 0xfa0 <adc_read>
     fce:	bc 01       	movw	r22, r24
     fd0:	99 0f       	add	r25, r25
     fd2:	88 0b       	sbc	r24, r24
     fd4:	99 0b       	sbc	r25, r25
     fd6:	0e 94 b6 0d 	call	0x1b6c	; 0x1b6c <__floatsisf>
     fda:	20 e0       	ldi	r18, 0x00	; 0
     fdc:	30 e0       	ldi	r19, 0x00	; 0
     fde:	40 e8       	ldi	r20, 0x80	; 128
     fe0:	5a e3       	ldi	r21, 0x3A	; 58
     fe2:	0e 94 6b 0e 	call	0x1cd6	; 0x1cd6 <__mulsf3>
     fe6:	20 e0       	ldi	r18, 0x00	; 0
     fe8:	30 e0       	ldi	r19, 0x00	; 0
     fea:	48 ec       	ldi	r20, 0xC8	; 200
     fec:	52 e4       	ldi	r21, 0x42	; 66
     fee:	0e 94 6b 0e 	call	0x1cd6	; 0x1cd6 <__mulsf3>
     ff2:	08 95       	ret

00000ff4 <lcd_setDDR>:
     ff4:	81 11       	cpse	r24, r1
     ff6:	04 c0       	rjmp	.+8      	; 0x1000 <lcd_setDDR+0xc>
     ff8:	87 b3       	in	r24, 0x17	; 23
     ffa:	8f 70       	andi	r24, 0x0F	; 15
     ffc:	87 bb       	out	0x17, r24	; 23
     ffe:	08 95       	ret
    1000:	87 b3       	in	r24, 0x17	; 23
    1002:	80 6f       	ori	r24, 0xF0	; 240
    1004:	87 bb       	out	0x17, r24	; 23
    1006:	88 b3       	in	r24, 0x18	; 24
    1008:	8f 70       	andi	r24, 0x0F	; 15
    100a:	88 bb       	out	0x18, r24	; 24
    100c:	08 95       	ret

0000100e <lcd_sendByte>:
    100e:	98 b3       	in	r25, 0x18	; 24
    1010:	9e 7f       	andi	r25, 0xFE	; 254
    1012:	98 bb       	out	0x18, r25	; 24
    1014:	28 b3       	in	r18, 0x18	; 24
    1016:	30 e1       	ldi	r19, 0x10	; 16
    1018:	83 9f       	mul	r24, r19
    101a:	c0 01       	movw	r24, r0
    101c:	11 24       	eor	r1, r1
    101e:	82 2b       	or	r24, r18
    1020:	88 bb       	out	0x18, r24	; 24
    1022:	88 b3       	in	r24, 0x18	; 24
    1024:	84 60       	ori	r24, 0x04	; 4
    1026:	88 bb       	out	0x18, r24	; 24
    1028:	85 e0       	ldi	r24, 0x05	; 5
    102a:	8a 95       	dec	r24
    102c:	f1 f7       	brne	.-4      	; 0x102a <lcd_sendByte+0x1c>
    102e:	00 00       	nop
    1030:	88 b3       	in	r24, 0x18	; 24
    1032:	8b 7f       	andi	r24, 0xFB	; 251
    1034:	88 bb       	out	0x18, r24	; 24
    1036:	88 b3       	in	r24, 0x18	; 24
    1038:	8f 70       	andi	r24, 0x0F	; 15
    103a:	88 bb       	out	0x18, r24	; 24
    103c:	08 95       	ret

0000103e <lcd_send>:
    103e:	98 b3       	in	r25, 0x18	; 24
    1040:	28 2f       	mov	r18, r24
    1042:	20 7f       	andi	r18, 0xF0	; 240
    1044:	92 2b       	or	r25, r18
    1046:	98 bb       	out	0x18, r25	; 24
    1048:	98 b3       	in	r25, 0x18	; 24
    104a:	94 60       	ori	r25, 0x04	; 4
    104c:	98 bb       	out	0x18, r25	; 24
    104e:	35 e0       	ldi	r19, 0x05	; 5
    1050:	3a 95       	dec	r19
    1052:	f1 f7       	brne	.-4      	; 0x1050 <lcd_send+0x12>
    1054:	00 00       	nop
    1056:	98 b3       	in	r25, 0x18	; 24
    1058:	9b 7f       	andi	r25, 0xFB	; 251
    105a:	98 bb       	out	0x18, r25	; 24
    105c:	98 b3       	in	r25, 0x18	; 24
    105e:	9f 70       	andi	r25, 0x0F	; 15
    1060:	98 bb       	out	0x18, r25	; 24
    1062:	28 b3       	in	r18, 0x18	; 24
    1064:	30 e1       	ldi	r19, 0x10	; 16
    1066:	83 9f       	mul	r24, r19
    1068:	c0 01       	movw	r24, r0
    106a:	11 24       	eor	r1, r1
    106c:	82 2b       	or	r24, r18
    106e:	88 bb       	out	0x18, r24	; 24
    1070:	88 b3       	in	r24, 0x18	; 24
    1072:	84 60       	ori	r24, 0x04	; 4
    1074:	88 bb       	out	0x18, r24	; 24
    1076:	85 e0       	ldi	r24, 0x05	; 5
    1078:	8a 95       	dec	r24
    107a:	f1 f7       	brne	.-4      	; 0x1078 <lcd_send+0x3a>
    107c:	00 00       	nop
    107e:	88 b3       	in	r24, 0x18	; 24
    1080:	8b 7f       	andi	r24, 0xFB	; 251
    1082:	88 bb       	out	0x18, r24	; 24
    1084:	88 b3       	in	r24, 0x18	; 24
    1086:	8f 70       	andi	r24, 0x0F	; 15
    1088:	88 bb       	out	0x18, r24	; 24
    108a:	08 95       	ret

0000108c <lcd_waitBusy>:
    108c:	80 e0       	ldi	r24, 0x00	; 0
    108e:	0e 94 fa 07 	call	0xff4	; 0xff4 <lcd_setDDR>
    1092:	88 b3       	in	r24, 0x18	; 24
    1094:	8e 7f       	andi	r24, 0xFE	; 254
    1096:	88 bb       	out	0x18, r24	; 24
    1098:	88 b3       	in	r24, 0x18	; 24
    109a:	82 60       	ori	r24, 0x02	; 2
    109c:	88 bb       	out	0x18, r24	; 24
    109e:	88 b3       	in	r24, 0x18	; 24
    10a0:	84 60       	ori	r24, 0x04	; 4
    10a2:	88 bb       	out	0x18, r24	; 24
    10a4:	85 e3       	ldi	r24, 0x35	; 53
    10a6:	8a 95       	dec	r24
    10a8:	f1 f7       	brne	.-4      	; 0x10a6 <lcd_waitBusy+0x1a>
    10aa:	00 00       	nop
    10ac:	86 b3       	in	r24, 0x16	; 22
    10ae:	88 b3       	in	r24, 0x18	; 24
    10b0:	8b 7f       	andi	r24, 0xFB	; 251
    10b2:	88 bb       	out	0x18, r24	; 24
    10b4:	81 e0       	ldi	r24, 0x01	; 1
    10b6:	0e 94 fa 07 	call	0xff4	; 0xff4 <lcd_setDDR>
    10ba:	88 b3       	in	r24, 0x18	; 24
    10bc:	8d 7f       	andi	r24, 0xFD	; 253
    10be:	88 bb       	out	0x18, r24	; 24
    10c0:	8f e8       	ldi	r24, 0x8F	; 143
    10c2:	91 e0       	ldi	r25, 0x01	; 1
    10c4:	01 97       	sbiw	r24, 0x01	; 1
    10c6:	f1 f7       	brne	.-4      	; 0x10c4 <lcd_waitBusy+0x38>
    10c8:	00 c0       	rjmp	.+0      	; 0x10ca <lcd_waitBusy+0x3e>
    10ca:	00 00       	nop
    10cc:	08 95       	ret

000010ce <lcd_sendCommand>:
    10ce:	cf 93       	push	r28
    10d0:	c8 2f       	mov	r28, r24
    10d2:	0e 94 46 08 	call	0x108c	; 0x108c <lcd_waitBusy>
    10d6:	88 b3       	in	r24, 0x18	; 24
    10d8:	8e 7f       	andi	r24, 0xFE	; 254
    10da:	88 bb       	out	0x18, r24	; 24
    10dc:	8c 2f       	mov	r24, r28
    10de:	0e 94 1f 08 	call	0x103e	; 0x103e <lcd_send>
    10e2:	cf 91       	pop	r28
    10e4:	08 95       	ret

000010e6 <lcd_init>:
    10e6:	8f ef       	ldi	r24, 0xFF	; 255
    10e8:	87 bb       	out	0x17, r24	; 23
    10ea:	18 ba       	out	0x18, r1	; 24
    10ec:	2f ef       	ldi	r18, 0xFF	; 255
    10ee:	83 ef       	ldi	r24, 0xF3	; 243
    10f0:	91 e0       	ldi	r25, 0x01	; 1
    10f2:	21 50       	subi	r18, 0x01	; 1
    10f4:	80 40       	sbci	r24, 0x00	; 0
    10f6:	90 40       	sbci	r25, 0x00	; 0
    10f8:	e1 f7       	brne	.-8      	; 0x10f2 <lcd_init+0xc>
    10fa:	00 c0       	rjmp	.+0      	; 0x10fc <lcd_init+0x16>
    10fc:	00 00       	nop
    10fe:	83 e0       	ldi	r24, 0x03	; 3
    1100:	0e 94 07 08 	call	0x100e	; 0x100e <lcd_sendByte>
    1104:	8f e5       	ldi	r24, 0x5F	; 95
    1106:	9a ee       	ldi	r25, 0xEA	; 234
    1108:	01 97       	sbiw	r24, 0x01	; 1
    110a:	f1 f7       	brne	.-4      	; 0x1108 <lcd_init+0x22>
    110c:	00 c0       	rjmp	.+0      	; 0x110e <lcd_init+0x28>
    110e:	00 00       	nop
    1110:	83 e0       	ldi	r24, 0x03	; 3
    1112:	0e 94 07 08 	call	0x100e	; 0x100e <lcd_sendByte>
    1116:	8f e9       	ldi	r24, 0x9F	; 159
    1118:	9f e0       	ldi	r25, 0x0F	; 15
    111a:	01 97       	sbiw	r24, 0x01	; 1
    111c:	f1 f7       	brne	.-4      	; 0x111a <lcd_init+0x34>
    111e:	00 c0       	rjmp	.+0      	; 0x1120 <lcd_init+0x3a>
    1120:	00 00       	nop
    1122:	83 e0       	ldi	r24, 0x03	; 3
    1124:	0e 94 07 08 	call	0x100e	; 0x100e <lcd_sendByte>
    1128:	8f e9       	ldi	r24, 0x9F	; 159
    112a:	9f e0       	ldi	r25, 0x0F	; 15
    112c:	01 97       	sbiw	r24, 0x01	; 1
    112e:	f1 f7       	brne	.-4      	; 0x112c <lcd_init+0x46>
    1130:	00 c0       	rjmp	.+0      	; 0x1132 <lcd_init+0x4c>
    1132:	00 00       	nop
    1134:	82 e0       	ldi	r24, 0x02	; 2
    1136:	0e 94 07 08 	call	0x100e	; 0x100e <lcd_sendByte>
    113a:	95 ed       	ldi	r25, 0xD5	; 213
    113c:	9a 95       	dec	r25
    113e:	f1 f7       	brne	.-4      	; 0x113c <lcd_init+0x56>
    1140:	00 00       	nop
    1142:	88 e2       	ldi	r24, 0x28	; 40
    1144:	0e 94 67 08 	call	0x10ce	; 0x10ce <lcd_sendCommand>
    1148:	8c e0       	ldi	r24, 0x0C	; 12
    114a:	0e 94 67 08 	call	0x10ce	; 0x10ce <lcd_sendCommand>
    114e:	86 e0       	ldi	r24, 0x06	; 6
    1150:	0e 94 67 08 	call	0x10ce	; 0x10ce <lcd_sendCommand>
    1154:	81 e0       	ldi	r24, 0x01	; 1
    1156:	0e 94 67 08 	call	0x10ce	; 0x10ce <lcd_sendCommand>
    115a:	8f e3       	ldi	r24, 0x3F	; 63
    115c:	9c e9       	ldi	r25, 0x9C	; 156
    115e:	01 97       	sbiw	r24, 0x01	; 1
    1160:	f1 f7       	brne	.-4      	; 0x115e <lcd_init+0x78>
    1162:	00 c0       	rjmp	.+0      	; 0x1164 <lcd_init+0x7e>
    1164:	00 00       	nop
    1166:	08 95       	ret

00001168 <lcd_sendData>:
    1168:	cf 93       	push	r28
    116a:	c8 2f       	mov	r28, r24
    116c:	0e 94 46 08 	call	0x108c	; 0x108c <lcd_waitBusy>
    1170:	88 b3       	in	r24, 0x18	; 24
    1172:	81 60       	ori	r24, 0x01	; 1
    1174:	88 bb       	out	0x18, r24	; 24
    1176:	8c 2f       	mov	r24, r28
    1178:	0e 94 1f 08 	call	0x103e	; 0x103e <lcd_send>
    117c:	cf 91       	pop	r28
    117e:	08 95       	ret

00001180 <lcd_setCursor>:
    1180:	e8 2f       	mov	r30, r24
    1182:	f0 e0       	ldi	r31, 0x00	; 0
    1184:	e9 58       	subi	r30, 0x89	; 137
    1186:	ff 4f       	sbci	r31, 0xFF	; 255
    1188:	80 81       	ld	r24, Z
    118a:	86 0f       	add	r24, r22
    118c:	80 68       	ori	r24, 0x80	; 128
    118e:	0e 94 67 08 	call	0x10ce	; 0x10ce <lcd_sendCommand>
    1192:	08 95       	ret

00001194 <lcd_print>:
    1194:	ef 92       	push	r14
    1196:	ff 92       	push	r15
    1198:	0f 93       	push	r16
    119a:	1f 93       	push	r17
    119c:	cf 93       	push	r28
    119e:	df 93       	push	r29
    11a0:	7c 01       	movw	r14, r24
    11a2:	fc 01       	movw	r30, r24
    11a4:	01 90       	ld	r0, Z+
    11a6:	00 20       	and	r0, r0
    11a8:	e9 f7       	brne	.-6      	; 0x11a4 <lcd_print+0x10>
    11aa:	31 97       	sbiw	r30, 0x01	; 1
    11ac:	8f 01       	movw	r16, r30
    11ae:	08 1b       	sub	r16, r24
    11b0:	19 0b       	sbc	r17, r25
    11b2:	c0 e0       	ldi	r28, 0x00	; 0
    11b4:	d0 e0       	ldi	r29, 0x00	; 0
    11b6:	07 c0       	rjmp	.+14     	; 0x11c6 <lcd_print+0x32>
    11b8:	f7 01       	movw	r30, r14
    11ba:	ec 0f       	add	r30, r28
    11bc:	fd 1f       	adc	r31, r29
    11be:	80 81       	ld	r24, Z
    11c0:	0e 94 b4 08 	call	0x1168	; 0x1168 <lcd_sendData>
    11c4:	21 96       	adiw	r28, 0x01	; 1
    11c6:	c0 17       	cp	r28, r16
    11c8:	d1 07       	cpc	r29, r17
    11ca:	b1 f7       	brne	.-20     	; 0x11b8 <lcd_print+0x24>
    11cc:	df 91       	pop	r29
    11ce:	cf 91       	pop	r28
    11d0:	1f 91       	pop	r17
    11d2:	0f 91       	pop	r16
    11d4:	ff 90       	pop	r15
    11d6:	ef 90       	pop	r14
    11d8:	08 95       	ret

000011da <lcd_printChar>:
    11da:	0e 94 b4 08 	call	0x1168	; 0x1168 <lcd_sendData>
    11de:	08 95       	ret

000011e0 <lcd_printInt>:
    11e0:	ef 92       	push	r14
    11e2:	ff 92       	push	r15
    11e4:	0f 93       	push	r16
    11e6:	1f 93       	push	r17
    11e8:	cf 93       	push	r28
    11ea:	df 93       	push	r29
    11ec:	f8 2e       	mov	r15, r24
    11ee:	e9 2e       	mov	r14, r25
    11f0:	9f 93       	push	r25
    11f2:	8f 93       	push	r24
    11f4:	81 e7       	ldi	r24, 0x71	; 113
    11f6:	90 e0       	ldi	r25, 0x00	; 0
    11f8:	9f 93       	push	r25
    11fa:	8f 93       	push	r24
    11fc:	1f 92       	push	r1
    11fe:	1f 92       	push	r1
    1200:	1f 92       	push	r1
    1202:	1f 92       	push	r1
    1204:	0e 94 1f 10 	call	0x203e	; 0x203e <snprintf>
    1208:	8c 01       	movw	r16, r24
    120a:	0f 5f       	subi	r16, 0xFF	; 255
    120c:	1f 4f       	sbci	r17, 0xFF	; 255
    120e:	80 2f       	mov	r24, r16
    1210:	91 2f       	mov	r25, r17
    1212:	0e 94 fe 0e 	call	0x1dfc	; 0x1dfc <malloc>
    1216:	ec 01       	movw	r28, r24
    1218:	8d b7       	in	r24, 0x3d	; 61
    121a:	9e b7       	in	r25, 0x3e	; 62
    121c:	08 96       	adiw	r24, 0x08	; 8
    121e:	0f b6       	in	r0, 0x3f	; 63
    1220:	f8 94       	cli
    1222:	9e bf       	out	0x3e, r25	; 62
    1224:	0f be       	out	0x3f, r0	; 63
    1226:	8d bf       	out	0x3d, r24	; 61
    1228:	20 97       	sbiw	r28, 0x00	; 0
    122a:	d1 f0       	breq	.+52     	; 0x1260 <lcd_printInt+0x80>
    122c:	ef 92       	push	r14
    122e:	ff 92       	push	r15
    1230:	81 e7       	ldi	r24, 0x71	; 113
    1232:	90 e0       	ldi	r25, 0x00	; 0
    1234:	9f 93       	push	r25
    1236:	8f 93       	push	r24
    1238:	1f 93       	push	r17
    123a:	0f 93       	push	r16
    123c:	df 93       	push	r29
    123e:	cf 93       	push	r28
    1240:	0e 94 1f 10 	call	0x203e	; 0x203e <snprintf>
    1244:	ce 01       	movw	r24, r28
    1246:	0e 94 ca 08 	call	0x1194	; 0x1194 <lcd_print>
    124a:	ce 01       	movw	r24, r28
    124c:	0e 94 96 0f 	call	0x1f2c	; 0x1f2c <free>
    1250:	8d b7       	in	r24, 0x3d	; 61
    1252:	9e b7       	in	r25, 0x3e	; 62
    1254:	08 96       	adiw	r24, 0x08	; 8
    1256:	0f b6       	in	r0, 0x3f	; 63
    1258:	f8 94       	cli
    125a:	9e bf       	out	0x3e, r25	; 62
    125c:	0f be       	out	0x3f, r0	; 63
    125e:	8d bf       	out	0x3d, r24	; 61
    1260:	df 91       	pop	r29
    1262:	cf 91       	pop	r28
    1264:	1f 91       	pop	r17
    1266:	0f 91       	pop	r16
    1268:	ff 90       	pop	r15
    126a:	ef 90       	pop	r14
    126c:	08 95       	ret

0000126e <lcd_printDouble>:
    126e:	bf 92       	push	r11
    1270:	cf 92       	push	r12
    1272:	df 92       	push	r13
    1274:	ef 92       	push	r14
    1276:	ff 92       	push	r15
    1278:	0f 93       	push	r16
    127a:	1f 93       	push	r17
    127c:	cf 93       	push	r28
    127e:	df 93       	push	r29
    1280:	c6 2e       	mov	r12, r22
    1282:	d7 2e       	mov	r13, r23
    1284:	e8 2e       	mov	r14, r24
    1286:	f9 2e       	mov	r15, r25
    1288:	b4 2e       	mov	r11, r20
    128a:	9f 93       	push	r25
    128c:	8f 93       	push	r24
    128e:	7f 93       	push	r23
    1290:	6f 93       	push	r22
    1292:	84 e7       	ldi	r24, 0x74	; 116
    1294:	90 e0       	ldi	r25, 0x00	; 0
    1296:	9f 93       	push	r25
    1298:	8f 93       	push	r24
    129a:	1f 92       	push	r1
    129c:	1f 92       	push	r1
    129e:	1f 92       	push	r1
    12a0:	1f 92       	push	r1
    12a2:	0e 94 1f 10 	call	0x203e	; 0x203e <snprintf>
    12a6:	01 96       	adiw	r24, 0x01	; 1
    12a8:	0e 94 fe 0e 	call	0x1dfc	; 0x1dfc <malloc>
    12ac:	ec 01       	movw	r28, r24
    12ae:	8d b7       	in	r24, 0x3d	; 61
    12b0:	9e b7       	in	r25, 0x3e	; 62
    12b2:	0a 96       	adiw	r24, 0x0a	; 10
    12b4:	0f b6       	in	r0, 0x3f	; 63
    12b6:	f8 94       	cli
    12b8:	9e bf       	out	0x3e, r25	; 62
    12ba:	0f be       	out	0x3f, r0	; 63
    12bc:	8d bf       	out	0x3d, r24	; 61
    12be:	20 97       	sbiw	r28, 0x00	; 0
    12c0:	79 f0       	breq	.+30     	; 0x12e0 <lcd_printDouble+0x72>
    12c2:	8e 01       	movw	r16, r28
    12c4:	2b 2d       	mov	r18, r11
    12c6:	44 e0       	ldi	r20, 0x04	; 4
    12c8:	6c 2d       	mov	r22, r12
    12ca:	7d 2d       	mov	r23, r13
    12cc:	8e 2d       	mov	r24, r14
    12ce:	9f 2d       	mov	r25, r15
    12d0:	0e 94 de 0e 	call	0x1dbc	; 0x1dbc <dtostrf>
    12d4:	ce 01       	movw	r24, r28
    12d6:	0e 94 ca 08 	call	0x1194	; 0x1194 <lcd_print>
    12da:	ce 01       	movw	r24, r28
    12dc:	0e 94 96 0f 	call	0x1f2c	; 0x1f2c <free>
    12e0:	df 91       	pop	r29
    12e2:	cf 91       	pop	r28
    12e4:	1f 91       	pop	r17
    12e6:	0f 91       	pop	r16
    12e8:	ff 90       	pop	r15
    12ea:	ef 90       	pop	r14
    12ec:	df 90       	pop	r13
    12ee:	cf 90       	pop	r12
    12f0:	bf 90       	pop	r11
    12f2:	08 95       	ret

000012f4 <i2c_init>:
#include <avr/io.h>

void i2c_init (void)
{
	/*set i2c bus speed according to avr data sheet*/
	TWSR = 0;
    12f4:	11 b8       	out	0x01, r1	; 1
	TWBR = (uint8_t)((((F_CPU / F_I2C) / PRESCALER_I2C) - 16 ) / 2);
    12f6:	88 e4       	ldi	r24, 0x48	; 72
    12f8:	80 b9       	out	0x00, r24	; 0
    12fa:	08 95       	ret

000012fc <i2c_send_start>:
}

unsigned char i2c_send_start (void)
{
	/*writing a one to TWINT clears it, TWSTA=Start, TWEN=TWI-enable*/
	TWCR = (1<<TWINT) | (1<<TWSTA) | (1<<TWEN);
    12fc:	84 ea       	ldi	r24, 0xA4	; 164
    12fe:	86 bf       	out	0x36, r24	; 54
	/*wait, until start condition has been sent --> ACK*/
	while (!(TWCR & (1<<TWINT)));
    1300:	06 b6       	in	r0, 0x36	; 54
    1302:	07 fe       	sbrs	r0, 7
    1304:	fd cf       	rjmp	.-6      	; 0x1300 <i2c_send_start+0x4>
	return TWSR;
    1306:	81 b1       	in	r24, 0x01	; 1
}
    1308:	08 95       	ret

0000130a <i2c_send_stop>:

void i2c_send_stop (void)
{
	/*clear TWINT , TWSTO=Stop, TWEN=TWI-enable*/
	TWCR = (1<<TWINT) | (1<<TWSTO) | (1<<TWEN);	
    130a:	84 e9       	ldi	r24, 0x94	; 148
    130c:	86 bf       	out	0x36, r24	; 54
    130e:	08 95       	ret

00001310 <i2c_send_add_rw>:
unsigned char i2c_send_add_rw (unsigned char address, unsigned char rw)
{
	/*address can be 0 .. 8; rw=0 --> write, rw=1 --> read*/
	unsigned char addr_byte = 0;
	/*shift address one bit left*/
	addr_byte = address << 1;
    1310:	88 0f       	add	r24, r24
	/*set RW-Bit, if necessary*/
	addr_byte |= rw;
    1312:	68 2b       	or	r22, r24
	/*0b0100xxx0 --> address of Expander*/
	addr_byte |= 0b01000000;
    1314:	60 64       	ori	r22, 0x40	; 64
	/*TWDR contains byte to send*/
	TWDR = addr_byte;
    1316:	63 b9       	out	0x03, r22	; 3
	/*send content of TWDR*/
	TWCR = (1<<TWINT) | (1<<TWEN);
    1318:	84 e8       	ldi	r24, 0x84	; 132
    131a:	86 bf       	out	0x36, r24	; 54
	/*wait, until address has been sent --> ACK*/
	while (!(TWCR & (1<<TWINT)));
    131c:	06 b6       	in	r0, 0x36	; 54
    131e:	07 fe       	sbrs	r0, 7
    1320:	fd cf       	rjmp	.-6      	; 0x131c <i2c_send_add_rw+0xc>
	return TWSR;
    1322:	81 b1       	in	r24, 0x01	; 1
}
    1324:	08 95       	ret

00001326 <i2c_send_byte>:


unsigned char i2c_send_byte (unsigned char byte)
{
	/*write byte to TWDR*/
	TWDR = byte;
    1326:	83 b9       	out	0x03, r24	; 3
	/*send content of TWDR*/
	TWCR = (1<<TWINT) | (1<<TWEN);
    1328:	84 e8       	ldi	r24, 0x84	; 132
    132a:	86 bf       	out	0x36, r24	; 54
	/*wait, until byte has been sent --> ACK*/
	while (!(TWCR & (1<<TWINT)));
    132c:	06 b6       	in	r0, 0x36	; 54
    132e:	07 fe       	sbrs	r0, 7
    1330:	fd cf       	rjmp	.-6      	; 0x132c <i2c_send_byte+0x6>
	return TWSR;
    1332:	81 b1       	in	r24, 0x01	; 1
}
    1334:	08 95       	ret

00001336 <i2c_read_byte>:


unsigned char i2c_read_byte (void)
{
	/*send content of TWDR; TWEA = enable ACK*/
	TWCR = (1<<TWINT) | (1<<TWEA) | (1<<TWEN);
    1336:	84 ec       	ldi	r24, 0xC4	; 196
    1338:	86 bf       	out	0x36, r24	; 54
	/*wait, until byte has been received --> ACK*/
	while (!(TWCR & (1<<TWINT)));
    133a:	06 b6       	in	r0, 0x36	; 54
    133c:	07 fe       	sbrs	r0, 7
    133e:	fd cf       	rjmp	.-6      	; 0x133a <i2c_read_byte+0x4>
	return TWDR;
    1340:	83 b1       	in	r24, 0x03	; 3
}
    1342:	08 95       	ret

00001344 <einlesentempandhumid>:
time_t rawtime1[8],wptnow1;
//////////////////////////////////////////////////////////////////////////
 
void einlesentempandhumid()
{
	adchumid = adc_readvoltage(0);
    1344:	80 e0       	ldi	r24, 0x00	; 0
    1346:	0e 94 e5 07 	call	0xfca	; 0xfca <adc_readvoltage>
    134a:	60 93 36 01 	sts	0x0136, r22	; 0x800136 <__data_end>
    134e:	70 93 37 01 	sts	0x0137, r23	; 0x800137 <__data_end+0x1>
    1352:	80 93 38 01 	sts	0x0138, r24	; 0x800138 <__data_end+0x2>
    1356:	90 93 39 01 	sts	0x0139, r25	; 0x800139 <__data_end+0x3>
    135a:	8f e3       	ldi	r24, 0x3F	; 63
    135c:	9c e9       	ldi	r25, 0x9C	; 156
    135e:	01 97       	sbiw	r24, 0x01	; 1
    1360:	f1 f7       	brne	.-4      	; 0x135e <einlesentempandhumid+0x1a>
    1362:	00 c0       	rjmp	.+0      	; 0x1364 <einlesentempandhumid+0x20>
    1364:	00 00       	nop
	
	_delay_ms(10);
	
	adctemp = adc_readvoltage(1);
    1366:	81 e0       	ldi	r24, 0x01	; 1
    1368:	0e 94 e5 07 	call	0xfca	; 0xfca <adc_readvoltage>
    136c:	60 93 3a 01 	sts	0x013A, r22	; 0x80013a <adctemp>
    1370:	70 93 3b 01 	sts	0x013B, r23	; 0x80013b <adctemp+0x1>
    1374:	80 93 3c 01 	sts	0x013C, r24	; 0x80013c <adctemp+0x2>
    1378:	90 93 3d 01 	sts	0x013D, r25	; 0x80013d <adctemp+0x3>
    137c:	08 95       	ret

0000137e <checkhumidandtemp>:
}
//////////////////////////////////////////////////////////////////////////
int checkhumidandtemp(double x, double y) // Abfrage der Humid und Temperatur
{
    137e:	8f 92       	push	r8
    1380:	9f 92       	push	r9
    1382:	af 92       	push	r10
    1384:	bf 92       	push	r11
    1386:	cf 92       	push	r12
    1388:	df 92       	push	r13
    138a:	ef 92       	push	r14
    138c:	ff 92       	push	r15
    138e:	cf 93       	push	r28
    1390:	df 93       	push	r29
    1392:	cd b7       	in	r28, 0x3d	; 61
    1394:	de b7       	in	r29, 0x3e	; 62
    1396:	68 97       	sbiw	r28, 0x18	; 24
    1398:	0f b6       	in	r0, 0x3f	; 63
    139a:	f8 94       	cli
    139c:	de bf       	out	0x3e, r29	; 62
    139e:	0f be       	out	0x3f, r0	; 63
    13a0:	cd bf       	out	0x3d, r28	; 61
    13a2:	6b 01       	movw	r12, r22
    13a4:	7c 01       	movw	r14, r24
    13a6:	49 01       	movw	r8, r18
    13a8:	5a 01       	movw	r10, r20
	
	//fr das erste wertepaar
	struct tm wp,wp1; // Struktur fr aktuelle Zeit 
	wp.tm_hour = 04; // 12:00:00 
    13aa:	84 e0       	ldi	r24, 0x04	; 4
    13ac:	8b 83       	std	Y+3, r24	; 0x03
	wp.tm_min = 59;
    13ae:	8b e3       	ldi	r24, 0x3B	; 59
    13b0:	8a 83       	std	Y+2, r24	; 0x02
	wp.tm_sec = 59;
    13b2:	89 83       	std	Y+1, r24	; 0x01
	wp1.tm_hour = 13; // 12:00:00
    13b4:	8d e0       	ldi	r24, 0x0D	; 13
    13b6:	8f 87       	std	Y+15, r24	; 0x0f
	wp1.tm_min = 21;
    13b8:	85 e1       	ldi	r24, 0x15	; 21
    13ba:	8e 87       	std	Y+14, r24	; 0x0e
	wp1.tm_sec = 31;
    13bc:	8f e1       	ldi	r24, 0x1F	; 31
    13be:	8d 87       	std	Y+13, r24	; 0x0d
	
	
	if(((x >= 20)&&(x<= 22))&&((y>= 40)&&(y<= 60))) // Abfrage fr den optimalen Bereich 
    13c0:	20 e0       	ldi	r18, 0x00	; 0
    13c2:	30 e0       	ldi	r19, 0x00	; 0
    13c4:	40 ea       	ldi	r20, 0xA0	; 160
    13c6:	51 e4       	ldi	r21, 0x41	; 65
    13c8:	c7 01       	movw	r24, r14
    13ca:	b6 01       	movw	r22, r12
    13cc:	0e 94 66 0e 	call	0x1ccc	; 0x1ccc <__gesf2>
    13d0:	88 23       	and	r24, r24
    13d2:	3c f1       	brlt	.+78     	; 0x1422 <checkhumidandtemp+0xa4>
    13d4:	20 e0       	ldi	r18, 0x00	; 0
    13d6:	30 e0       	ldi	r19, 0x00	; 0
    13d8:	40 eb       	ldi	r20, 0xB0	; 176
    13da:	51 e4       	ldi	r21, 0x41	; 65
    13dc:	c7 01       	movw	r24, r14
    13de:	b6 01       	movw	r22, r12
    13e0:	0e 94 af 0d 	call	0x1b5e	; 0x1b5e <__cmpsf2>
    13e4:	18 16       	cp	r1, r24
    13e6:	ec f0       	brlt	.+58     	; 0x1422 <checkhumidandtemp+0xa4>
    13e8:	20 e0       	ldi	r18, 0x00	; 0
    13ea:	30 e0       	ldi	r19, 0x00	; 0
    13ec:	40 e2       	ldi	r20, 0x20	; 32
    13ee:	52 e4       	ldi	r21, 0x42	; 66
    13f0:	c5 01       	movw	r24, r10
    13f2:	b4 01       	movw	r22, r8
    13f4:	0e 94 66 0e 	call	0x1ccc	; 0x1ccc <__gesf2>
    13f8:	88 23       	and	r24, r24
    13fa:	9c f0       	brlt	.+38     	; 0x1422 <checkhumidandtemp+0xa4>
    13fc:	20 e0       	ldi	r18, 0x00	; 0
    13fe:	30 e0       	ldi	r19, 0x00	; 0
    1400:	40 e7       	ldi	r20, 0x70	; 112
    1402:	52 e4       	ldi	r21, 0x42	; 66
    1404:	c5 01       	movw	r24, r10
    1406:	b4 01       	movw	r22, r8
    1408:	0e 94 af 0d 	call	0x1b5e	; 0x1b5e <__cmpsf2>
    140c:	18 16       	cp	r1, r24
    140e:	4c f0       	brlt	.+18     	; 0x1422 <checkhumidandtemp+0xa4>
	{ 
		
		ledstatus = ledgruen; // led wird grn 
    1410:	80 91 6c 00 	lds	r24, 0x006C	; 0x80006c <ledgruen>
    1414:	90 91 6d 00 	lds	r25, 0x006D	; 0x80006d <ledgruen+0x1>
    1418:	90 93 cf 01 	sts	0x01CF, r25	; 0x8001cf <ledstatus+0x1>
    141c:	80 93 ce 01 	sts	0x01CE, r24	; 0x8001ce <ledstatus>
    1420:	76 c1       	rjmp	.+748    	; 0x170e <checkhumidandtemp+0x390>
		
	}
	
    else if(((((x < 20) && (x >= 16)) || ((x > 22) && (x <= 26))) && ((y >= 30) && (y <= 70))) || ((((y < 40) && (y >= 30)) || ((y > 60) && (y <= 70))) && ((x < 26) && (x > 16)))) // Abfrage fr den toleriert Bereich
    1422:	20 e0       	ldi	r18, 0x00	; 0
    1424:	30 e0       	ldi	r19, 0x00	; 0
    1426:	40 ea       	ldi	r20, 0xA0	; 160
    1428:	51 e4       	ldi	r21, 0x41	; 65
    142a:	c7 01       	movw	r24, r14
    142c:	b6 01       	movw	r22, r12
    142e:	0e 94 af 0d 	call	0x1b5e	; 0x1b5e <__cmpsf2>
    1432:	88 23       	and	r24, r24
    1434:	54 f4       	brge	.+20     	; 0x144a <checkhumidandtemp+0xcc>
    1436:	20 e0       	ldi	r18, 0x00	; 0
    1438:	30 e0       	ldi	r19, 0x00	; 0
    143a:	40 e8       	ldi	r20, 0x80	; 128
    143c:	51 e4       	ldi	r21, 0x41	; 65
    143e:	c7 01       	movw	r24, r14
    1440:	b6 01       	movw	r22, r12
    1442:	0e 94 66 0e 	call	0x1ccc	; 0x1ccc <__gesf2>
    1446:	88 23       	and	r24, r24
    1448:	a4 f4       	brge	.+40     	; 0x1472 <checkhumidandtemp+0xf4>
    144a:	20 e0       	ldi	r18, 0x00	; 0
    144c:	30 e0       	ldi	r19, 0x00	; 0
    144e:	40 eb       	ldi	r20, 0xB0	; 176
    1450:	51 e4       	ldi	r21, 0x41	; 65
    1452:	c7 01       	movw	r24, r14
    1454:	b6 01       	movw	r22, r12
    1456:	0e 94 66 0e 	call	0x1ccc	; 0x1ccc <__gesf2>
    145a:	18 16       	cp	r1, r24
    145c:	fc f4       	brge	.+62     	; 0x149c <checkhumidandtemp+0x11e>
    145e:	20 e0       	ldi	r18, 0x00	; 0
    1460:	30 e0       	ldi	r19, 0x00	; 0
    1462:	40 ed       	ldi	r20, 0xD0	; 208
    1464:	51 e4       	ldi	r21, 0x41	; 65
    1466:	c7 01       	movw	r24, r14
    1468:	b6 01       	movw	r22, r12
    146a:	0e 94 af 0d 	call	0x1b5e	; 0x1b5e <__cmpsf2>
    146e:	18 16       	cp	r1, r24
    1470:	ac f0       	brlt	.+42     	; 0x149c <checkhumidandtemp+0x11e>
    1472:	20 e0       	ldi	r18, 0x00	; 0
    1474:	30 e0       	ldi	r19, 0x00	; 0
    1476:	40 ef       	ldi	r20, 0xF0	; 240
    1478:	51 e4       	ldi	r21, 0x41	; 65
    147a:	c5 01       	movw	r24, r10
    147c:	b4 01       	movw	r22, r8
    147e:	0e 94 66 0e 	call	0x1ccc	; 0x1ccc <__gesf2>
    1482:	88 23       	and	r24, r24
    1484:	5c f0       	brlt	.+22     	; 0x149c <checkhumidandtemp+0x11e>
    1486:	20 e0       	ldi	r18, 0x00	; 0
    1488:	30 e0       	ldi	r19, 0x00	; 0
    148a:	4c e8       	ldi	r20, 0x8C	; 140
    148c:	52 e4       	ldi	r21, 0x42	; 66
    148e:	c5 01       	movw	r24, r10
    1490:	b4 01       	movw	r22, r8
    1492:	0e 94 af 0d 	call	0x1b5e	; 0x1b5e <__cmpsf2>
    1496:	18 16       	cp	r1, r24
    1498:	0c f0       	brlt	.+2      	; 0x149c <checkhumidandtemp+0x11e>
    149a:	40 c0       	rjmp	.+128    	; 0x151c <checkhumidandtemp+0x19e>
    149c:	20 e0       	ldi	r18, 0x00	; 0
    149e:	30 e0       	ldi	r19, 0x00	; 0
    14a0:	40 e2       	ldi	r20, 0x20	; 32
    14a2:	52 e4       	ldi	r21, 0x42	; 66
    14a4:	c5 01       	movw	r24, r10
    14a6:	b4 01       	movw	r22, r8
    14a8:	0e 94 af 0d 	call	0x1b5e	; 0x1b5e <__cmpsf2>
    14ac:	88 23       	and	r24, r24
    14ae:	54 f4       	brge	.+20     	; 0x14c4 <checkhumidandtemp+0x146>
    14b0:	20 e0       	ldi	r18, 0x00	; 0
    14b2:	30 e0       	ldi	r19, 0x00	; 0
    14b4:	40 ef       	ldi	r20, 0xF0	; 240
    14b6:	51 e4       	ldi	r21, 0x41	; 65
    14b8:	c5 01       	movw	r24, r10
    14ba:	b4 01       	movw	r22, r8
    14bc:	0e 94 66 0e 	call	0x1ccc	; 0x1ccc <__gesf2>
    14c0:	88 23       	and	r24, r24
    14c2:	b4 f4       	brge	.+44     	; 0x14f0 <checkhumidandtemp+0x172>
    14c4:	20 e0       	ldi	r18, 0x00	; 0
    14c6:	30 e0       	ldi	r19, 0x00	; 0
    14c8:	40 e7       	ldi	r20, 0x70	; 112
    14ca:	52 e4       	ldi	r21, 0x42	; 66
    14cc:	c5 01       	movw	r24, r10
    14ce:	b4 01       	movw	r22, r8
    14d0:	0e 94 66 0e 	call	0x1ccc	; 0x1ccc <__gesf2>
    14d4:	18 16       	cp	r1, r24
    14d6:	0c f0       	brlt	.+2      	; 0x14da <checkhumidandtemp+0x15c>
    14d8:	7b c0       	rjmp	.+246    	; 0x15d0 <checkhumidandtemp+0x252>
    14da:	20 e0       	ldi	r18, 0x00	; 0
    14dc:	30 e0       	ldi	r19, 0x00	; 0
    14de:	4c e8       	ldi	r20, 0x8C	; 140
    14e0:	52 e4       	ldi	r21, 0x42	; 66
    14e2:	c5 01       	movw	r24, r10
    14e4:	b4 01       	movw	r22, r8
    14e6:	0e 94 af 0d 	call	0x1b5e	; 0x1b5e <__cmpsf2>
    14ea:	18 16       	cp	r1, r24
    14ec:	0c f4       	brge	.+2      	; 0x14f0 <checkhumidandtemp+0x172>
    14ee:	70 c0       	rjmp	.+224    	; 0x15d0 <checkhumidandtemp+0x252>
    14f0:	20 e0       	ldi	r18, 0x00	; 0
    14f2:	30 e0       	ldi	r19, 0x00	; 0
    14f4:	40 ed       	ldi	r20, 0xD0	; 208
    14f6:	51 e4       	ldi	r21, 0x41	; 65
    14f8:	c7 01       	movw	r24, r14
    14fa:	b6 01       	movw	r22, r12
    14fc:	0e 94 af 0d 	call	0x1b5e	; 0x1b5e <__cmpsf2>
    1500:	88 23       	and	r24, r24
    1502:	0c f0       	brlt	.+2      	; 0x1506 <checkhumidandtemp+0x188>
    1504:	65 c0       	rjmp	.+202    	; 0x15d0 <checkhumidandtemp+0x252>
    1506:	20 e0       	ldi	r18, 0x00	; 0
    1508:	30 e0       	ldi	r19, 0x00	; 0
    150a:	40 e8       	ldi	r20, 0x80	; 128
    150c:	51 e4       	ldi	r21, 0x41	; 65
    150e:	c7 01       	movw	r24, r14
    1510:	b6 01       	movw	r22, r12
    1512:	0e 94 66 0e 	call	0x1ccc	; 0x1ccc <__gesf2>
    1516:	18 16       	cp	r1, r24
    1518:	0c f0       	brlt	.+2      	; 0x151c <checkhumidandtemp+0x19e>
    151a:	5a c0       	rjmp	.+180    	; 0x15d0 <checkhumidandtemp+0x252>
	{
		
		if(ledstatus == ledrot) // abfrage ob die LED davor rot war damit er dann in den zweiten Messwert speichern tut
    151c:	20 91 ce 01 	lds	r18, 0x01CE	; 0x8001ce <ledstatus>
    1520:	30 91 cf 01 	lds	r19, 0x01CF	; 0x8001cf <ledstatus+0x1>
    1524:	80 91 68 00 	lds	r24, 0x0068	; 0x800068 <ledrot>
    1528:	90 91 69 00 	lds	r25, 0x0069	; 0x800069 <ledrot+0x1>
    152c:	28 17       	cp	r18, r24
    152e:	39 07       	cpc	r19, r25
    1530:	09 f0       	breq	.+2      	; 0x1534 <checkhumidandtemp+0x1b6>
    1532:	45 c0       	rjmp	.+138    	; 0x15be <checkhumidandtemp+0x240>
		{
			
			 wptnow1 = mktime(&wp1); // funktion formt das struct in ein UTC zeit um und schreibt das in wptnow1 (time_t)
    1534:	ce 01       	movw	r24, r28
    1536:	0d 96       	adiw	r24, 0x0d	; 13
    1538:	0e 94 d3 01 	call	0x3a6	; 0x3a6 <mktime>
    153c:	6b 01       	movw	r12, r22
    153e:	7c 01       	movw	r14, r24
    1540:	60 93 4a 01 	sts	0x014A, r22	; 0x80014a <wptnow1>
    1544:	70 93 4b 01 	sts	0x014B, r23	; 0x80014b <wptnow1+0x1>
    1548:	80 93 4c 01 	sts	0x014C, r24	; 0x80014c <wptnow1+0x2>
    154c:	90 93 4d 01 	sts	0x014D, r25	; 0x80014d <wptnow1+0x3>
			 
			 for(int i = 4; i >=1;i--) // Verschiebt das array um eins damit die werte aktualisiert werden.  
    1550:	84 e0       	ldi	r24, 0x04	; 4
    1552:	90 e0       	ldi	r25, 0x00	; 0
    1554:	1a c0       	rjmp	.+52     	; 0x158a <checkhumidandtemp+0x20c>
			 {
				 
				 rawtime1[i]=rawtime1[i-1];
    1556:	9c 01       	movw	r18, r24
    1558:	21 50       	subi	r18, 0x01	; 1
    155a:	31 09       	sbc	r19, r1
    155c:	f9 01       	movw	r30, r18
    155e:	ee 0f       	add	r30, r30
    1560:	ff 1f       	adc	r31, r31
    1562:	ee 0f       	add	r30, r30
    1564:	ff 1f       	adc	r31, r31
    1566:	e2 5b       	subi	r30, 0xB2	; 178
    1568:	fe 4f       	sbci	r31, 0xFE	; 254
    156a:	40 81       	ld	r20, Z
    156c:	51 81       	ldd	r21, Z+1	; 0x01
    156e:	62 81       	ldd	r22, Z+2	; 0x02
    1570:	73 81       	ldd	r23, Z+3	; 0x03
    1572:	88 0f       	add	r24, r24
    1574:	99 1f       	adc	r25, r25
    1576:	88 0f       	add	r24, r24
    1578:	99 1f       	adc	r25, r25
    157a:	fc 01       	movw	r30, r24
    157c:	e2 5b       	subi	r30, 0xB2	; 178
    157e:	fe 4f       	sbci	r31, 0xFE	; 254
    1580:	40 83       	st	Z, r20
    1582:	51 83       	std	Z+1, r21	; 0x01
    1584:	62 83       	std	Z+2, r22	; 0x02
    1586:	73 83       	std	Z+3, r23	; 0x03
		if(ledstatus == ledrot) // abfrage ob die LED davor rot war damit er dann in den zweiten Messwert speichern tut
		{
			
			 wptnow1 = mktime(&wp1); // funktion formt das struct in ein UTC zeit um und schreibt das in wptnow1 (time_t)
			 
			 for(int i = 4; i >=1;i--) // Verschiebt das array um eins damit die werte aktualisiert werden.  
    1588:	c9 01       	movw	r24, r18
    158a:	18 16       	cp	r1, r24
    158c:	19 06       	cpc	r1, r25
    158e:	1c f3       	brlt	.-58     	; 0x1556 <checkhumidandtemp+0x1d8>
				 
				 rawtime1[i]=rawtime1[i-1];
				 
			 }
			 
			 rawtime1[0]= wptnow1; // beschreibt das erste feld 
    1590:	c0 92 4e 01 	sts	0x014E, r12	; 0x80014e <rawtime1>
    1594:	d0 92 4f 01 	sts	0x014F, r13	; 0x80014f <rawtime1+0x1>
    1598:	e0 92 50 01 	sts	0x0150, r14	; 0x800150 <rawtime1+0x2>
    159c:	f0 92 51 01 	sts	0x0151, r15	; 0x800151 <rawtime1+0x3>
			 
			 anzeige = 1;
    15a0:	81 e0       	ldi	r24, 0x01	; 1
    15a2:	90 e0       	ldi	r25, 0x00	; 0
    15a4:	90 93 3f 01 	sts	0x013F, r25	; 0x80013f <anzeige+0x1>
    15a8:	80 93 3e 01 	sts	0x013E, r24	; 0x80013e <anzeige>
    15ac:	2f ef       	ldi	r18, 0xFF	; 255
    15ae:	89 e6       	ldi	r24, 0x69	; 105
    15b0:	98 e1       	ldi	r25, 0x18	; 24
    15b2:	21 50       	subi	r18, 0x01	; 1
    15b4:	80 40       	sbci	r24, 0x00	; 0
    15b6:	90 40       	sbci	r25, 0x00	; 0
    15b8:	e1 f7       	brne	.-8      	; 0x15b2 <checkhumidandtemp+0x234>
    15ba:	00 c0       	rjmp	.+0      	; 0x15bc <checkhumidandtemp+0x23e>
    15bc:	00 00       	nop
			 _delay_ms(500);
		}
		
		 ledstatus = ledgelb;  // led wird gelb
    15be:	80 91 6a 00 	lds	r24, 0x006A	; 0x80006a <ledgelb>
    15c2:	90 91 6b 00 	lds	r25, 0x006B	; 0x80006b <ledgelb+0x1>
    15c6:	90 93 cf 01 	sts	0x01CF, r25	; 0x8001cf <ledstatus+0x1>
    15ca:	80 93 ce 01 	sts	0x01CE, r24	; 0x8001ce <ledstatus>
    15ce:	9f c0       	rjmp	.+318    	; 0x170e <checkhumidandtemp+0x390>
	} 
	
	else if (((x<16)||(y<30)||(x>26)||(y>70)) && (ledstatus == ledgelb)) // Abfrage fr den roten Bereich und den berschritt in den roten bereich durch abfrage  ledstatus 
    15d0:	20 e0       	ldi	r18, 0x00	; 0
    15d2:	30 e0       	ldi	r19, 0x00	; 0
    15d4:	40 e8       	ldi	r20, 0x80	; 128
    15d6:	51 e4       	ldi	r21, 0x41	; 65
    15d8:	c7 01       	movw	r24, r14
    15da:	b6 01       	movw	r22, r12
    15dc:	0e 94 af 0d 	call	0x1b5e	; 0x1b5e <__cmpsf2>
    15e0:	88 23       	and	r24, r24
    15e2:	fc f0       	brlt	.+62     	; 0x1622 <checkhumidandtemp+0x2a4>
    15e4:	20 e0       	ldi	r18, 0x00	; 0
    15e6:	30 e0       	ldi	r19, 0x00	; 0
    15e8:	40 ef       	ldi	r20, 0xF0	; 240
    15ea:	51 e4       	ldi	r21, 0x41	; 65
    15ec:	c5 01       	movw	r24, r10
    15ee:	b4 01       	movw	r22, r8
    15f0:	0e 94 af 0d 	call	0x1b5e	; 0x1b5e <__cmpsf2>
    15f4:	88 23       	and	r24, r24
    15f6:	ac f0       	brlt	.+42     	; 0x1622 <checkhumidandtemp+0x2a4>
    15f8:	20 e0       	ldi	r18, 0x00	; 0
    15fa:	30 e0       	ldi	r19, 0x00	; 0
    15fc:	40 ed       	ldi	r20, 0xD0	; 208
    15fe:	51 e4       	ldi	r21, 0x41	; 65
    1600:	c7 01       	movw	r24, r14
    1602:	b6 01       	movw	r22, r12
    1604:	0e 94 66 0e 	call	0x1ccc	; 0x1ccc <__gesf2>
    1608:	18 16       	cp	r1, r24
    160a:	5c f0       	brlt	.+22     	; 0x1622 <checkhumidandtemp+0x2a4>
    160c:	20 e0       	ldi	r18, 0x00	; 0
    160e:	30 e0       	ldi	r19, 0x00	; 0
    1610:	4c e8       	ldi	r20, 0x8C	; 140
    1612:	52 e4       	ldi	r21, 0x42	; 66
    1614:	c5 01       	movw	r24, r10
    1616:	b4 01       	movw	r22, r8
    1618:	0e 94 66 0e 	call	0x1ccc	; 0x1ccc <__gesf2>
    161c:	18 16       	cp	r1, r24
    161e:	0c f0       	brlt	.+2      	; 0x1622 <checkhumidandtemp+0x2a4>
    1620:	4b c0       	rjmp	.+150    	; 0x16b8 <checkhumidandtemp+0x33a>
    1622:	20 91 ce 01 	lds	r18, 0x01CE	; 0x8001ce <ledstatus>
    1626:	30 91 cf 01 	lds	r19, 0x01CF	; 0x8001cf <ledstatus+0x1>
    162a:	80 91 6a 00 	lds	r24, 0x006A	; 0x80006a <ledgelb>
    162e:	90 91 6b 00 	lds	r25, 0x006B	; 0x80006b <ledgelb+0x1>
    1632:	28 17       	cp	r18, r24
    1634:	39 07       	cpc	r19, r25
    1636:	09 f0       	breq	.+2      	; 0x163a <checkhumidandtemp+0x2bc>
    1638:	3f c0       	rjmp	.+126    	; 0x16b8 <checkhumidandtemp+0x33a>
	{
		
		wptnow = mktime(&wp);
    163a:	ce 01       	movw	r24, r28
    163c:	01 96       	adiw	r24, 0x01	; 1
    163e:	0e 94 d3 01 	call	0x3a6	; 0x3a6 <mktime>
    1642:	6b 01       	movw	r12, r22
    1644:	7c 01       	movw	r14, r24
    1646:	60 93 ca 01 	sts	0x01CA, r22	; 0x8001ca <wptnow>
    164a:	70 93 cb 01 	sts	0x01CB, r23	; 0x8001cb <wptnow+0x1>
    164e:	80 93 cc 01 	sts	0x01CC, r24	; 0x8001cc <wptnow+0x2>
    1652:	90 93 cd 01 	sts	0x01CD, r25	; 0x8001cd <wptnow+0x3>
		
		for(int i = 4; i >=1;i--)
    1656:	84 e0       	ldi	r24, 0x04	; 4
    1658:	90 e0       	ldi	r25, 0x00	; 0
    165a:	1a c0       	rjmp	.+52     	; 0x1690 <checkhumidandtemp+0x312>
		{
			
			rawtime[i]=rawtime[i-1];
    165c:	9c 01       	movw	r18, r24
    165e:	21 50       	subi	r18, 0x01	; 1
    1660:	31 09       	sbc	r19, r1
    1662:	f9 01       	movw	r30, r18
    1664:	ee 0f       	add	r30, r30
    1666:	ff 1f       	adc	r31, r31
    1668:	ee 0f       	add	r30, r30
    166a:	ff 1f       	adc	r31, r31
    166c:	e6 55       	subi	r30, 0x56	; 86
    166e:	fe 4f       	sbci	r31, 0xFE	; 254
    1670:	40 81       	ld	r20, Z
    1672:	51 81       	ldd	r21, Z+1	; 0x01
    1674:	62 81       	ldd	r22, Z+2	; 0x02
    1676:	73 81       	ldd	r23, Z+3	; 0x03
    1678:	88 0f       	add	r24, r24
    167a:	99 1f       	adc	r25, r25
    167c:	88 0f       	add	r24, r24
    167e:	99 1f       	adc	r25, r25
    1680:	fc 01       	movw	r30, r24
    1682:	e6 55       	subi	r30, 0x56	; 86
    1684:	fe 4f       	sbci	r31, 0xFE	; 254
    1686:	40 83       	st	Z, r20
    1688:	51 83       	std	Z+1, r21	; 0x01
    168a:	62 83       	std	Z+2, r22	; 0x02
    168c:	73 83       	std	Z+3, r23	; 0x03
	else if (((x<16)||(y<30)||(x>26)||(y>70)) && (ledstatus == ledgelb)) // Abfrage fr den roten Bereich und den berschritt in den roten bereich durch abfrage  ledstatus 
	{
		
		wptnow = mktime(&wp);
		
		for(int i = 4; i >=1;i--)
    168e:	c9 01       	movw	r24, r18
    1690:	18 16       	cp	r1, r24
    1692:	19 06       	cpc	r1, r25
    1694:	1c f3       	brlt	.-58     	; 0x165c <checkhumidandtemp+0x2de>
			
			rawtime[i]=rawtime[i-1];
			
		}
		
		rawtime[0]= wptnow;
    1696:	c0 92 aa 01 	sts	0x01AA, r12	; 0x8001aa <rawtime>
    169a:	d0 92 ab 01 	sts	0x01AB, r13	; 0x8001ab <rawtime+0x1>
    169e:	e0 92 ac 01 	sts	0x01AC, r14	; 0x8001ac <rawtime+0x2>
    16a2:	f0 92 ad 01 	sts	0x01AD, r15	; 0x8001ad <rawtime+0x3>
		
		ledstatus = ledrot; // led wird rot
    16a6:	80 91 68 00 	lds	r24, 0x0068	; 0x800068 <ledrot>
    16aa:	90 91 69 00 	lds	r25, 0x0069	; 0x800069 <ledrot+0x1>
    16ae:	90 93 cf 01 	sts	0x01CF, r25	; 0x8001cf <ledstatus+0x1>
    16b2:	80 93 ce 01 	sts	0x01CE, r24	; 0x8001ce <ledstatus>
    16b6:	2b c0       	rjmp	.+86     	; 0x170e <checkhumidandtemp+0x390>
		
	}
	
	else if((x <= 16)||(x >= 26))
    16b8:	20 e0       	ldi	r18, 0x00	; 0
    16ba:	30 e0       	ldi	r19, 0x00	; 0
    16bc:	40 e8       	ldi	r20, 0x80	; 128
    16be:	51 e4       	ldi	r21, 0x41	; 65
    16c0:	c7 01       	movw	r24, r14
    16c2:	b6 01       	movw	r22, r12
    16c4:	0e 94 af 0d 	call	0x1b5e	; 0x1b5e <__cmpsf2>
    16c8:	18 16       	cp	r1, r24
    16ca:	54 f4       	brge	.+20     	; 0x16e0 <checkhumidandtemp+0x362>
    16cc:	20 e0       	ldi	r18, 0x00	; 0
    16ce:	30 e0       	ldi	r19, 0x00	; 0
    16d0:	40 ed       	ldi	r20, 0xD0	; 208
    16d2:	51 e4       	ldi	r21, 0x41	; 65
    16d4:	c7 01       	movw	r24, r14
    16d6:	b6 01       	movw	r22, r12
    16d8:	0e 94 66 0e 	call	0x1ccc	; 0x1ccc <__gesf2>
    16dc:	88 23       	and	r24, r24
    16de:	7c f0       	brlt	.+30     	; 0x16fe <checkhumidandtemp+0x380>
	{
		
		ledstatus = ledstatus & ledP4;
    16e0:	20 91 ce 01 	lds	r18, 0x01CE	; 0x8001ce <ledstatus>
    16e4:	30 91 cf 01 	lds	r19, 0x01CF	; 0x8001cf <ledstatus+0x1>
    16e8:	80 91 66 00 	lds	r24, 0x0066	; 0x800066 <ledP4>
    16ec:	90 91 67 00 	lds	r25, 0x0067	; 0x800067 <ledP4+0x1>
    16f0:	82 23       	and	r24, r18
    16f2:	93 23       	and	r25, r19
    16f4:	90 93 cf 01 	sts	0x01CF, r25	; 0x8001cf <ledstatus+0x1>
    16f8:	80 93 ce 01 	sts	0x01CE, r24	; 0x8001ce <ledstatus>
    16fc:	08 c0       	rjmp	.+16     	; 0x170e <checkhumidandtemp+0x390>
				
	}
	else
	{ 	
		
		ledstatus= ledrot; // wen nichts stimmt soll die led rot werden berprfen bzw. Erschuetterung ist 
    16fe:	80 91 68 00 	lds	r24, 0x0068	; 0x800068 <ledrot>
    1702:	90 91 69 00 	lds	r25, 0x0069	; 0x800069 <ledrot+0x1>
    1706:	90 93 cf 01 	sts	0x01CF, r25	; 0x8001cf <ledstatus+0x1>
    170a:	80 93 ce 01 	sts	0x01CE, r24	; 0x8001ce <ledstatus>
		
	} 
	return ledstatus; // rckgabewert
    170e:	80 91 ce 01 	lds	r24, 0x01CE	; 0x8001ce <ledstatus>
    1712:	90 91 cf 01 	lds	r25, 0x01CF	; 0x8001cf <ledstatus+0x1>
	
}
    1716:	68 96       	adiw	r28, 0x18	; 24
    1718:	0f b6       	in	r0, 0x3f	; 63
    171a:	f8 94       	cli
    171c:	de bf       	out	0x3e, r29	; 62
    171e:	0f be       	out	0x3f, r0	; 63
    1720:	cd bf       	out	0x3d, r28	; 61
    1722:	df 91       	pop	r29
    1724:	cf 91       	pop	r28
    1726:	ff 90       	pop	r15
    1728:	ef 90       	pop	r14
    172a:	df 90       	pop	r13
    172c:	cf 90       	pop	r12
    172e:	bf 90       	pop	r11
    1730:	af 90       	pop	r10
    1732:	9f 90       	pop	r9
    1734:	8f 90       	pop	r8
    1736:	08 95       	ret

00001738 <checkVibration>:
//////////////////////////////////////////////////////////////////////////

//////////////////////////////////////////////////////////////////////////
void checkVibration()
{
	while (!(PIND & (1 << PD7)))
    1738:	1f c0       	rjmp	.+62     	; 0x1778 <checkVibration+0x40>
	{
		
		ledstatus = ledrot;
    173a:	80 91 68 00 	lds	r24, 0x0068	; 0x800068 <ledrot>
    173e:	90 91 69 00 	lds	r25, 0x0069	; 0x800069 <ledrot+0x1>
    1742:	90 93 cf 01 	sts	0x01CF, r25	; 0x8001cf <ledstatus+0x1>
    1746:	80 93 ce 01 	sts	0x01CE, r24	; 0x8001ce <ledstatus>
		
		lcd_init();
    174a:	0e 94 73 08 	call	0x10e6	; 0x10e6 <lcd_init>
		
		lcd_print("Achtung");
    174e:	89 e7       	ldi	r24, 0x79	; 121
    1750:	90 e0       	ldi	r25, 0x00	; 0
    1752:	0e 94 ca 08 	call	0x1194	; 0x1194 <lcd_print>
		
		lcd_setCursor(1, 0);
    1756:	60 e0       	ldi	r22, 0x00	; 0
    1758:	81 e0       	ldi	r24, 0x01	; 1
    175a:	0e 94 c0 08 	call	0x1180	; 0x1180 <lcd_setCursor>
		
		lcd_print("Erschuetterung !");
    175e:	81 e8       	ldi	r24, 0x81	; 129
    1760:	90 e0       	ldi	r25, 0x00	; 0
    1762:	0e 94 ca 08 	call	0x1194	; 0x1194 <lcd_print>
    1766:	2f ef       	ldi	r18, 0xFF	; 255
    1768:	83 ec       	ldi	r24, 0xC3	; 195
    176a:	99 e0       	ldi	r25, 0x09	; 9
    176c:	21 50       	subi	r18, 0x01	; 1
    176e:	80 40       	sbci	r24, 0x00	; 0
    1770:	90 40       	sbci	r25, 0x00	; 0
    1772:	e1 f7       	brne	.-8      	; 0x176c <checkVibration+0x34>
    1774:	00 c0       	rjmp	.+0      	; 0x1776 <checkVibration+0x3e>
    1776:	00 00       	nop
//////////////////////////////////////////////////////////////////////////

//////////////////////////////////////////////////////////////////////////
void checkVibration()
{
	while (!(PIND & (1 << PD7)))
    1778:	87 9b       	sbis	0x10, 7	; 16
    177a:	df cf       	rjmp	.-66     	; 0x173a <checkVibration+0x2>
		lcd_print("Erschuetterung !");
		
		_delay_ms(200);
		
	}
}
    177c:	08 95       	ret

0000177e <displayData>:
//////////////////////////////////////////////////////////////////////////

//////////////////////////////////////////////////////////////////////////
void displayData() 
{
	lcd_init();
    177e:	0e 94 73 08 	call	0x10e6	; 0x10e6 <lcd_init>
	
	lcd_print("Temp:");
    1782:	82 e9       	ldi	r24, 0x92	; 146
    1784:	90 e0       	ldi	r25, 0x00	; 0
    1786:	0e 94 ca 08 	call	0x1194	; 0x1194 <lcd_print>
	
	lcd_setCursor(0, 10);
    178a:	6a e0       	ldi	r22, 0x0A	; 10
    178c:	80 e0       	ldi	r24, 0x00	; 0
    178e:	0e 94 c0 08 	call	0x1180	; 0x1180 <lcd_setCursor>
	
	lcd_printDouble(adctemp, 1);
    1792:	60 91 3a 01 	lds	r22, 0x013A	; 0x80013a <adctemp>
    1796:	70 91 3b 01 	lds	r23, 0x013B	; 0x80013b <adctemp+0x1>
    179a:	80 91 3c 01 	lds	r24, 0x013C	; 0x80013c <adctemp+0x2>
    179e:	90 91 3d 01 	lds	r25, 0x013D	; 0x80013d <adctemp+0x3>
    17a2:	41 e0       	ldi	r20, 0x01	; 1
    17a4:	50 e0       	ldi	r21, 0x00	; 0
    17a6:	0e 94 37 09 	call	0x126e	; 0x126e <lcd_printDouble>
	
	lcd_printChar(DEGREE);
    17aa:	8f ed       	ldi	r24, 0xDF	; 223
    17ac:	0e 94 ed 08 	call	0x11da	; 0x11da <lcd_printChar>
	
	lcd_print("C");
    17b0:	88 e9       	ldi	r24, 0x98	; 152
    17b2:	90 e0       	ldi	r25, 0x00	; 0
    17b4:	0e 94 ca 08 	call	0x1194	; 0x1194 <lcd_print>
	
	lcd_setCursor(1, 0);
    17b8:	60 e0       	ldi	r22, 0x00	; 0
    17ba:	81 e0       	ldi	r24, 0x01	; 1
    17bc:	0e 94 c0 08 	call	0x1180	; 0x1180 <lcd_setCursor>
	
	lcd_print("Humid:");
    17c0:	8a e9       	ldi	r24, 0x9A	; 154
    17c2:	90 e0       	ldi	r25, 0x00	; 0
    17c4:	0e 94 ca 08 	call	0x1194	; 0x1194 <lcd_print>
	
	lcd_setCursor(1, 10);
    17c8:	6a e0       	ldi	r22, 0x0A	; 10
    17ca:	81 e0       	ldi	r24, 0x01	; 1
    17cc:	0e 94 c0 08 	call	0x1180	; 0x1180 <lcd_setCursor>
	
	lcd_printDouble(adchumid, 1);
    17d0:	60 91 36 01 	lds	r22, 0x0136	; 0x800136 <__data_end>
    17d4:	70 91 37 01 	lds	r23, 0x0137	; 0x800137 <__data_end+0x1>
    17d8:	80 91 38 01 	lds	r24, 0x0138	; 0x800138 <__data_end+0x2>
    17dc:	90 91 39 01 	lds	r25, 0x0139	; 0x800139 <__data_end+0x3>
    17e0:	41 e0       	ldi	r20, 0x01	; 1
    17e2:	50 e0       	ldi	r21, 0x00	; 0
    17e4:	0e 94 37 09 	call	0x126e	; 0x126e <lcd_printDouble>
	
	lcd_printChar(PERCENT);
    17e8:	85 e2       	ldi	r24, 0x25	; 37
    17ea:	0e 94 ed 08 	call	0x11da	; 0x11da <lcd_printChar>
	
	if(anzeige == 1)
    17ee:	80 91 3e 01 	lds	r24, 0x013E	; 0x80013e <anzeige>
    17f2:	90 91 3f 01 	lds	r25, 0x013F	; 0x80013f <anzeige+0x1>
    17f6:	01 97       	sbiw	r24, 0x01	; 1
    17f8:	21 f4       	brne	.+8      	; 0x1802 <displayData+0x84>
	{
		lcd_print("!");
    17fa:	80 e9       	ldi	r24, 0x90	; 144
    17fc:	90 e0       	ldi	r25, 0x00	; 0
    17fe:	0e 94 ca 08 	call	0x1194	; 0x1194 <lcd_print>
    1802:	2f ef       	ldi	r18, 0xFF	; 255
    1804:	83 ec       	ldi	r24, 0xC3	; 195
    1806:	99 e0       	ldi	r25, 0x09	; 9
    1808:	21 50       	subi	r18, 0x01	; 1
    180a:	80 40       	sbci	r24, 0x00	; 0
    180c:	90 40       	sbci	r25, 0x00	; 0
    180e:	e1 f7       	brne	.-8      	; 0x1808 <displayData+0x8a>
    1810:	00 c0       	rjmp	.+0      	; 0x1812 <displayData+0x94>
    1812:	00 00       	nop
    1814:	08 95       	ret

00001816 <buttonCheck>:
}
//////////////////////////////////////////////////////////////////////////

//////////////////////////////////////////////////////////////////////////
void buttonCheck(uint32_t button) 
{
    1816:	cf 93       	push	r28
    1818:	df 93       	push	r29
	switch (button)
    181a:	6b 3f       	cpi	r22, 0xFB	; 251
    181c:	71 05       	cpc	r23, r1
    181e:	81 05       	cpc	r24, r1
    1820:	91 05       	cpc	r25, r1
    1822:	09 f4       	brne	.+2      	; 0x1826 <buttonCheck+0x10>
    1824:	d9 c0       	rjmp	.+434    	; 0x19d8 <buttonCheck+0x1c2>
    1826:	6e 3f       	cpi	r22, 0xFE	; 254
    1828:	71 05       	cpc	r23, r1
    182a:	81 05       	cpc	r24, r1
    182c:	91 05       	cpc	r25, r1
    182e:	09 f4       	brne	.+2      	; 0x1832 <buttonCheck+0x1c>
    1830:	58 c1       	rjmp	.+688    	; 0x1ae2 <buttonCheck+0x2cc>
    1832:	34 c1       	rjmp	.+616    	; 0x1a9c <buttonCheck+0x286>
		// Wenn der Button-Wert 0b11111011 ist, fhren wir eine Reihe Funktionen aus.
		
		while (zeithochzaehlen <= 4)
		{
			
			einlesentempandhumid();
    1834:	0e 94 a2 09 	call	0x1344	; 0x1344 <einlesentempandhumid>
			// Formatieren der Zeitstrings
			strftime(timeString, sizeof(timeString), "%H:%M:%S", localtime(&rawtime[zeithochzaehlen]));
    1838:	80 91 40 01 	lds	r24, 0x0140	; 0x800140 <zeithochzaehlen>
    183c:	90 91 41 01 	lds	r25, 0x0141	; 0x800141 <zeithochzaehlen+0x1>
    1840:	88 0f       	add	r24, r24
    1842:	99 1f       	adc	r25, r25
    1844:	88 0f       	add	r24, r24
    1846:	99 1f       	adc	r25, r25
    1848:	86 55       	subi	r24, 0x56	; 86
    184a:	9e 4f       	sbci	r25, 0xFE	; 254
    184c:	0e 94 8a 01 	call	0x314	; 0x314 <localtime>
    1850:	9c 01       	movw	r18, r24
    1852:	41 ea       	ldi	r20, 0xA1	; 161
    1854:	50 e0       	ldi	r21, 0x00	; 0
    1856:	6e e1       	ldi	r22, 0x1E	; 30
    1858:	70 e0       	ldi	r23, 0x00	; 0
    185a:	8c e8       	ldi	r24, 0x8C	; 140
    185c:	91 e0       	ldi	r25, 0x01	; 1
    185e:	0e 94 6a 02 	call	0x4d4	; 0x4d4 <strftime>
			strftime(timeString1, sizeof(timeString1), "%H:%M:%S", localtime(&rawtime1[zeithochzaehlen]));
    1862:	80 91 40 01 	lds	r24, 0x0140	; 0x800140 <zeithochzaehlen>
    1866:	90 91 41 01 	lds	r25, 0x0141	; 0x800141 <zeithochzaehlen+0x1>
    186a:	88 0f       	add	r24, r24
    186c:	99 1f       	adc	r25, r25
    186e:	88 0f       	add	r24, r24
    1870:	99 1f       	adc	r25, r25
    1872:	82 5b       	subi	r24, 0xB2	; 178
    1874:	9e 4f       	sbci	r25, 0xFE	; 254
    1876:	0e 94 8a 01 	call	0x314	; 0x314 <localtime>
    187a:	9c 01       	movw	r18, r24
    187c:	41 ea       	ldi	r20, 0xA1	; 161
    187e:	50 e0       	ldi	r21, 0x00	; 0
    1880:	6e e1       	ldi	r22, 0x1E	; 30
    1882:	70 e0       	ldi	r23, 0x00	; 0
    1884:	8e e6       	ldi	r24, 0x6E	; 110
    1886:	91 e0       	ldi	r25, 0x01	; 1
    1888:	0e 94 6a 02 	call	0x4d4	; 0x4d4 <strftime>
			
			i2 = checkhumidandtemp(adctemp,adchumid);
    188c:	20 91 36 01 	lds	r18, 0x0136	; 0x800136 <__data_end>
    1890:	30 91 37 01 	lds	r19, 0x0137	; 0x800137 <__data_end+0x1>
    1894:	40 91 38 01 	lds	r20, 0x0138	; 0x800138 <__data_end+0x2>
    1898:	50 91 39 01 	lds	r21, 0x0139	; 0x800139 <__data_end+0x3>
    189c:	60 91 3a 01 	lds	r22, 0x013A	; 0x80013a <adctemp>
    18a0:	70 91 3b 01 	lds	r23, 0x013B	; 0x80013b <adctemp+0x1>
    18a4:	80 91 3c 01 	lds	r24, 0x013C	; 0x80013c <adctemp+0x2>
    18a8:	90 91 3d 01 	lds	r25, 0x013D	; 0x80013d <adctemp+0x3>
    18ac:	0e 94 bf 09 	call	0x137e	; 0x137e <checkhumidandtemp>
    18b0:	90 93 43 01 	sts	0x0143, r25	; 0x800143 <i2+0x1>
    18b4:	80 93 42 01 	sts	0x0142, r24	; 0x800142 <i2>
			pcf8574_set_outputs(0x21, i2);
    18b8:	60 91 42 01 	lds	r22, 0x0142	; 0x800142 <i2>
    18bc:	70 91 43 01 	lds	r23, 0x0143	; 0x800143 <i2+0x1>
    18c0:	81 e2       	ldi	r24, 0x21	; 33
    18c2:	0e 94 9b 0d 	call	0x1b36	; 0x1b36 <pcf8574_set_outputs>
			
			// Eingaben von PCF8574 lesen
			buttons = pcf8574_get_inputs(0x20);
    18c6:	80 e2       	ldi	r24, 0x20	; 32
    18c8:	0e 94 89 0d 	call	0x1b12	; 0x1b12 <pcf8574_get_inputs>
    18cc:	80 93 70 00 	sts	0x0070, r24	; 0x800070 <buttons>

			if (buttons == 0b11110111)
    18d0:	80 91 70 00 	lds	r24, 0x0070	; 0x800070 <buttons>
    18d4:	87 3f       	cpi	r24, 0xF7	; 247
    18d6:	d9 f4       	brne	.+54     	; 0x190e <buttonCheck+0xf8>
			{
				// Wenn die Buttons den Wert 0b11110111 haben, erhhen wir zeithochzaehlen und setzen den Counter zurck.
				zeithochzaehlen++;
    18d8:	80 91 40 01 	lds	r24, 0x0140	; 0x800140 <zeithochzaehlen>
    18dc:	90 91 41 01 	lds	r25, 0x0141	; 0x800141 <zeithochzaehlen+0x1>
    18e0:	01 96       	adiw	r24, 0x01	; 1
    18e2:	90 93 41 01 	sts	0x0141, r25	; 0x800141 <zeithochzaehlen+0x1>
    18e6:	80 93 40 01 	sts	0x0140, r24	; 0x800140 <zeithochzaehlen>
				counter = 0;
    18ea:	10 92 46 01 	sts	0x0146, r1	; 0x800146 <counter>
    18ee:	10 92 47 01 	sts	0x0147, r1	; 0x800147 <counter+0x1>
    18f2:	10 92 48 01 	sts	0x0148, r1	; 0x800148 <counter+0x2>
    18f6:	10 92 49 01 	sts	0x0149, r1	; 0x800149 <counter+0x3>
    18fa:	2f ef       	ldi	r18, 0xFF	; 255
    18fc:	84 e3       	ldi	r24, 0x34	; 52
    18fe:	9c e0       	ldi	r25, 0x0C	; 12
    1900:	21 50       	subi	r18, 0x01	; 1
    1902:	80 40       	sbci	r24, 0x00	; 0
    1904:	90 40       	sbci	r25, 0x00	; 0
    1906:	e1 f7       	brne	.-8      	; 0x1900 <buttonCheck+0xea>
    1908:	00 c0       	rjmp	.+0      	; 0x190a <buttonCheck+0xf4>
    190a:	00 00       	nop
    190c:	4c c0       	rjmp	.+152    	; 0x19a6 <buttonCheck+0x190>
			}
			else
			{
				
				// Ansonsten initialisieren wir das LCD und zeigen verschiedene Informationen an.
				lcd_init();
    190e:	0e 94 73 08 	call	0x10e6	; 0x10e6 <lcd_init>
				lcd_print("Zeit ");
    1912:	8a ea       	ldi	r24, 0xAA	; 170
    1914:	90 e0       	ldi	r25, 0x00	; 0
    1916:	0e 94 ca 08 	call	0x1194	; 0x1194 <lcd_print>
				lcd_printInt(zeithochzaehlen);
    191a:	80 91 40 01 	lds	r24, 0x0140	; 0x800140 <zeithochzaehlen>
    191e:	90 91 41 01 	lds	r25, 0x0141	; 0x800141 <zeithochzaehlen+0x1>
    1922:	0e 94 f0 08 	call	0x11e0	; 0x11e0 <lcd_printInt>
				lcd_print(": ");
    1926:	80 eb       	ldi	r24, 0xB0	; 176
    1928:	90 e0       	ldi	r25, 0x00	; 0
    192a:	0e 94 ca 08 	call	0x1194	; 0x1194 <lcd_print>
				lcd_setCursor(0, 8);
    192e:	68 e0       	ldi	r22, 0x08	; 8
    1930:	80 e0       	ldi	r24, 0x00	; 0
    1932:	0e 94 c0 08 	call	0x1180	; 0x1180 <lcd_setCursor>
			
				if (counter == 600)
    1936:	80 91 46 01 	lds	r24, 0x0146	; 0x800146 <counter>
    193a:	90 91 47 01 	lds	r25, 0x0147	; 0x800147 <counter+0x1>
    193e:	a0 91 48 01 	lds	r26, 0x0148	; 0x800148 <counter+0x2>
    1942:	b0 91 49 01 	lds	r27, 0x0149	; 0x800149 <counter+0x3>
    1946:	88 35       	cpi	r24, 0x58	; 88
    1948:	92 40       	sbci	r25, 0x02	; 2
    194a:	a1 05       	cpc	r26, r1
    194c:	b1 05       	cpc	r27, r1
    194e:	69 f4       	brne	.+26     	; 0x196a <buttonCheck+0x154>
				{
					zeithochzaehlen = 10;
    1950:	8a e0       	ldi	r24, 0x0A	; 10
    1952:	90 e0       	ldi	r25, 0x00	; 0
    1954:	90 93 41 01 	sts	0x0141, r25	; 0x800141 <zeithochzaehlen+0x1>
    1958:	80 93 40 01 	sts	0x0140, r24	; 0x800140 <zeithochzaehlen>
					buttons = 0b11101111;
    195c:	8f ee       	ldi	r24, 0xEF	; 239
    195e:	80 93 70 00 	sts	0x0070, r24	; 0x800070 <buttons>
					abfrage = 0;
    1962:	10 92 6f 00 	sts	0x006F, r1	; 0x80006f <abfrage+0x1>
    1966:	10 92 6e 00 	sts	0x006E, r1	; 0x80006e <abfrage>
}
//////////////////////////////////////////////////////////////////////////

//////////////////////////////////////////////////////////////////////////
void buttonCheck(uint32_t button) 
{
    196a:	c0 e0       	ldi	r28, 0x00	; 0
    196c:	d0 e0       	ldi	r29, 0x00	; 0
    196e:	07 c0       	rjmp	.+14     	; 0x197e <buttonCheck+0x168>
					abfrage = 0;
				}

				for (int j = 0; j < 8; j++)
				{
					lcd_printChar(timeString[j]);
    1970:	fe 01       	movw	r30, r28
    1972:	e4 57       	subi	r30, 0x74	; 116
    1974:	fe 4f       	sbci	r31, 0xFE	; 254
    1976:	80 81       	ld	r24, Z
    1978:	0e 94 ed 08 	call	0x11da	; 0x11da <lcd_printChar>
					zeithochzaehlen = 10;
					buttons = 0b11101111;
					abfrage = 0;
				}

				for (int j = 0; j < 8; j++)
    197c:	21 96       	adiw	r28, 0x01	; 1
    197e:	c8 30       	cpi	r28, 0x08	; 8
    1980:	d1 05       	cpc	r29, r1
    1982:	b4 f3       	brlt	.-20     	; 0x1970 <buttonCheck+0x15a>
				{
					lcd_printChar(timeString[j]);
				}

				lcd_setCursor(1, 8);
    1984:	68 e0       	ldi	r22, 0x08	; 8
    1986:	81 e0       	ldi	r24, 0x01	; 1
    1988:	0e 94 c0 08 	call	0x1180	; 0x1180 <lcd_setCursor>

				for (int j = 0; j < 8; j++)
    198c:	c0 e0       	ldi	r28, 0x00	; 0
    198e:	d0 e0       	ldi	r29, 0x00	; 0
    1990:	07 c0       	rjmp	.+14     	; 0x19a0 <buttonCheck+0x18a>
				{
					lcd_printChar(timeString1[j]);
    1992:	fe 01       	movw	r30, r28
    1994:	e2 59       	subi	r30, 0x92	; 146
    1996:	fe 4f       	sbci	r31, 0xFE	; 254
    1998:	80 81       	ld	r24, Z
    199a:	0e 94 ed 08 	call	0x11da	; 0x11da <lcd_printChar>
					lcd_printChar(timeString[j]);
				}

				lcd_setCursor(1, 8);

				for (int j = 0; j < 8; j++)
    199e:	21 96       	adiw	r28, 0x01	; 1
    19a0:	c8 30       	cpi	r28, 0x08	; 8
    19a2:	d1 05       	cpc	r29, r1
    19a4:	b4 f3       	brlt	.-20     	; 0x1992 <buttonCheck+0x17c>
				{
					lcd_printChar(timeString1[j]);
				}
			}

			counter++;
    19a6:	80 91 46 01 	lds	r24, 0x0146	; 0x800146 <counter>
    19aa:	90 91 47 01 	lds	r25, 0x0147	; 0x800147 <counter+0x1>
    19ae:	a0 91 48 01 	lds	r26, 0x0148	; 0x800148 <counter+0x2>
    19b2:	b0 91 49 01 	lds	r27, 0x0149	; 0x800149 <counter+0x3>
    19b6:	01 96       	adiw	r24, 0x01	; 1
    19b8:	a1 1d       	adc	r26, r1
    19ba:	b1 1d       	adc	r27, r1
    19bc:	80 93 46 01 	sts	0x0146, r24	; 0x800146 <counter>
    19c0:	90 93 47 01 	sts	0x0147, r25	; 0x800147 <counter+0x1>
    19c4:	a0 93 48 01 	sts	0x0148, r26	; 0x800148 <counter+0x2>
    19c8:	b0 93 49 01 	sts	0x0149, r27	; 0x800149 <counter+0x3>
    19cc:	8f e3       	ldi	r24, 0x3F	; 63
    19ce:	9c e9       	ldi	r25, 0x9C	; 156
    19d0:	01 97       	sbiw	r24, 0x01	; 1
    19d2:	f1 f7       	brne	.-4      	; 0x19d0 <buttonCheck+0x1ba>
    19d4:	00 c0       	rjmp	.+0      	; 0x19d6 <buttonCheck+0x1c0>
    19d6:	00 00       	nop
		break;

		case 0b11111011:
		// Wenn der Button-Wert 0b11111011 ist, fhren wir eine Reihe Funktionen aus.
		
		while (zeithochzaehlen <= 4)
    19d8:	80 91 40 01 	lds	r24, 0x0140	; 0x800140 <zeithochzaehlen>
    19dc:	90 91 41 01 	lds	r25, 0x0141	; 0x800141 <zeithochzaehlen+0x1>
    19e0:	05 97       	sbiw	r24, 0x05	; 5
    19e2:	0c f4       	brge	.+2      	; 0x19e6 <buttonCheck+0x1d0>
    19e4:	27 cf       	rjmp	.-434    	; 0x1834 <buttonCheck+0x1e>
    19e6:	1c c0       	rjmp	.+56     	; 0x1a20 <buttonCheck+0x20a>
		}

		while ((buttons != 0b11011111) && (buttons != 0b11101111))
		{
			// Eine weitere Schleife, die luft, solange die Buttons nicht 0b11011111 oder 0b11101111 sind.
			lcd_init();
    19e8:	0e 94 73 08 	call	0x10e6	; 0x10e6 <lcd_init>
			
			buttons = pcf8574_get_inputs(0x20);
    19ec:	80 e2       	ldi	r24, 0x20	; 32
    19ee:	0e 94 89 0d 	call	0x1b12	; 0x1b12 <pcf8574_get_inputs>
    19f2:	80 93 70 00 	sts	0x0070, r24	; 0x800070 <buttons>
			
			lcd_print("Zeitloeschen ?");
    19f6:	83 eb       	ldi	r24, 0xB3	; 179
    19f8:	90 e0       	ldi	r25, 0x00	; 0
    19fa:	0e 94 ca 08 	call	0x1194	; 0x1194 <lcd_print>
			
			lcd_setCursor(1, 0);
    19fe:	60 e0       	ldi	r22, 0x00	; 0
    1a00:	81 e0       	ldi	r24, 0x01	; 1
    1a02:	0e 94 c0 08 	call	0x1180	; 0x1180 <lcd_setCursor>
			
			lcd_print("Y(S5)/N(S6)");
    1a06:	82 ec       	ldi	r24, 0xC2	; 194
    1a08:	90 e0       	ldi	r25, 0x00	; 0
    1a0a:	0e 94 ca 08 	call	0x1194	; 0x1194 <lcd_print>
    1a0e:	9f ef       	ldi	r25, 0xFF	; 255
    1a10:	21 ee       	ldi	r18, 0xE1	; 225
    1a12:	84 e0       	ldi	r24, 0x04	; 4
    1a14:	91 50       	subi	r25, 0x01	; 1
    1a16:	20 40       	sbci	r18, 0x00	; 0
    1a18:	80 40       	sbci	r24, 0x00	; 0
    1a1a:	e1 f7       	brne	.-8      	; 0x1a14 <buttonCheck+0x1fe>
    1a1c:	00 c0       	rjmp	.+0      	; 0x1a1e <buttonCheck+0x208>
    1a1e:	00 00       	nop

			counter++;
			_delay_ms(10);
		}

		while ((buttons != 0b11011111) && (buttons != 0b11101111))
    1a20:	80 91 70 00 	lds	r24, 0x0070	; 0x800070 <buttons>
    1a24:	8f 3d       	cpi	r24, 0xDF	; 223
    1a26:	21 f0       	breq	.+8      	; 0x1a30 <buttonCheck+0x21a>
    1a28:	80 91 70 00 	lds	r24, 0x0070	; 0x800070 <buttons>
    1a2c:	8f 3e       	cpi	r24, 0xEF	; 239
    1a2e:	e1 f6       	brne	.-72     	; 0x19e8 <buttonCheck+0x1d2>
			lcd_print("Y(S5)/N(S6)");
			
			_delay_ms(100);
		}

		if (buttons == 0b11101111)
    1a30:	80 91 70 00 	lds	r24, 0x0070	; 0x800070 <buttons>
    1a34:	8f 3e       	cpi	r24, 0xEF	; 239
    1a36:	29 f5       	brne	.+74     	; 0x1a82 <buttonCheck+0x26c>
    1a38:	16 c0       	rjmp	.+44     	; 0x1a66 <buttonCheck+0x250>
		{
			// Wenn die Buttons den Wert 0b11101111 haben, setzen wir zeithochzaehlen zurck und lschen die Zeitarrays.
			
			for (int i = 0; i <= 5; i++)
			{
				rawtime[i] = 0;
    1a3a:	c9 01       	movw	r24, r18
    1a3c:	88 0f       	add	r24, r24
    1a3e:	99 1f       	adc	r25, r25
    1a40:	88 0f       	add	r24, r24
    1a42:	99 1f       	adc	r25, r25
    1a44:	fc 01       	movw	r30, r24
    1a46:	e6 55       	subi	r30, 0x56	; 86
    1a48:	fe 4f       	sbci	r31, 0xFE	; 254
    1a4a:	10 82       	st	Z, r1
    1a4c:	11 82       	std	Z+1, r1	; 0x01
    1a4e:	12 82       	std	Z+2, r1	; 0x02
    1a50:	13 82       	std	Z+3, r1	; 0x03
				
				rawtime1[i] = 0;
    1a52:	fc 01       	movw	r30, r24
    1a54:	e2 5b       	subi	r30, 0xB2	; 178
    1a56:	fe 4f       	sbci	r31, 0xFE	; 254
    1a58:	10 82       	st	Z, r1
    1a5a:	11 82       	std	Z+1, r1	; 0x01
    1a5c:	12 82       	std	Z+2, r1	; 0x02
    1a5e:	13 82       	std	Z+3, r1	; 0x03

		if (buttons == 0b11101111)
		{
			// Wenn die Buttons den Wert 0b11101111 haben, setzen wir zeithochzaehlen zurck und lschen die Zeitarrays.
			
			for (int i = 0; i <= 5; i++)
    1a60:	2f 5f       	subi	r18, 0xFF	; 255
    1a62:	3f 4f       	sbci	r19, 0xFF	; 255
    1a64:	02 c0       	rjmp	.+4      	; 0x1a6a <buttonCheck+0x254>
    1a66:	20 e0       	ldi	r18, 0x00	; 0
    1a68:	30 e0       	ldi	r19, 0x00	; 0
    1a6a:	26 30       	cpi	r18, 0x06	; 6
    1a6c:	31 05       	cpc	r19, r1
    1a6e:	2c f3       	brlt	.-54     	; 0x1a3a <buttonCheck+0x224>
			{
				rawtime[i] = 0;
				
				rawtime1[i] = 0;
			}
			anzeige = 0,zeithochzaehlen = 0;
    1a70:	10 92 3f 01 	sts	0x013F, r1	; 0x80013f <anzeige+0x1>
    1a74:	10 92 3e 01 	sts	0x013E, r1	; 0x80013e <anzeige>
    1a78:	10 92 41 01 	sts	0x0141, r1	; 0x800141 <zeithochzaehlen+0x1>
    1a7c:	10 92 40 01 	sts	0x0140, r1	; 0x800140 <zeithochzaehlen>
    1a80:	30 c0       	rjmp	.+96     	; 0x1ae2 <buttonCheck+0x2cc>
		}
		else if (buttons == 0b11011111)
    1a82:	80 91 70 00 	lds	r24, 0x0070	; 0x800070 <buttons>
    1a86:	8f 3d       	cpi	r24, 0xDF	; 223
    1a88:	61 f5       	brne	.+88     	; 0x1ae2 <buttonCheck+0x2cc>
		{
			// Wenn die Buttons den Wert 0b11011111 haben, setzen wir nur zeithochzaehlen zurck.
			anzeige = 0,zeithochzaehlen = 0;
    1a8a:	10 92 3f 01 	sts	0x013F, r1	; 0x80013f <anzeige+0x1>
    1a8e:	10 92 3e 01 	sts	0x013E, r1	; 0x80013e <anzeige>
    1a92:	10 92 41 01 	sts	0x0141, r1	; 0x800141 <zeithochzaehlen+0x1>
    1a96:	10 92 40 01 	sts	0x0140, r1	; 0x800140 <zeithochzaehlen>
    1a9a:	23 c0       	rjmp	.+70     	; 0x1ae2 <buttonCheck+0x2cc>
		break;

		default:
		
		// Wenn der Button-Wert keiner der oben genannten ist, fhren wir eine Reihe von Operationen aus.
		checkVibration();
    1a9c:	0e 94 9c 0b 	call	0x1738	; 0x1738 <checkVibration>
		
		einlesentempandhumid();
    1aa0:	0e 94 a2 09 	call	0x1344	; 0x1344 <einlesentempandhumid>
		
		i1 = checkhumidandtemp(adctemp, adchumid);
    1aa4:	20 91 36 01 	lds	r18, 0x0136	; 0x800136 <__data_end>
    1aa8:	30 91 37 01 	lds	r19, 0x0137	; 0x800137 <__data_end+0x1>
    1aac:	40 91 38 01 	lds	r20, 0x0138	; 0x800138 <__data_end+0x2>
    1ab0:	50 91 39 01 	lds	r21, 0x0139	; 0x800139 <__data_end+0x3>
    1ab4:	60 91 3a 01 	lds	r22, 0x013A	; 0x80013a <adctemp>
    1ab8:	70 91 3b 01 	lds	r23, 0x013B	; 0x80013b <adctemp+0x1>
    1abc:	80 91 3c 01 	lds	r24, 0x013C	; 0x80013c <adctemp+0x2>
    1ac0:	90 91 3d 01 	lds	r25, 0x013D	; 0x80013d <adctemp+0x3>
    1ac4:	0e 94 bf 09 	call	0x137e	; 0x137e <checkhumidandtemp>
    1ac8:	90 93 45 01 	sts	0x0145, r25	; 0x800145 <i1+0x1>
    1acc:	80 93 44 01 	sts	0x0144, r24	; 0x800144 <i1>
		
		pcf8574_set_outputs(0x21, i1);
    1ad0:	60 91 44 01 	lds	r22, 0x0144	; 0x800144 <i1>
    1ad4:	70 91 45 01 	lds	r23, 0x0145	; 0x800145 <i1+0x1>
    1ad8:	81 e2       	ldi	r24, 0x21	; 33
    1ada:	0e 94 9b 0d 	call	0x1b36	; 0x1b36 <pcf8574_set_outputs>
		
		displayData();
    1ade:	0e 94 bf 0b 	call	0x177e	; 0x177e <displayData>
		
		break;
	}

}
    1ae2:	df 91       	pop	r29
    1ae4:	cf 91       	pop	r28
    1ae6:	08 95       	ret

00001ae8 <main>:

//////////////////////////////////////////////////////////////////////////
int main(void)
{
	//////////////////////////////////////////////////////////////////////////
	PORTD |= PIND7;	// setzt den Pin des Port D auf high 
    1ae8:	82 b3       	in	r24, 0x12	; 18
    1aea:	87 60       	ori	r24, 0x07	; 7
    1aec:	82 bb       	out	0x12, r24	; 18
	DDRD |= PD7; // PD7 als Ausgang 
    1aee:	81 b3       	in	r24, 0x11	; 17
    1af0:	87 60       	ori	r24, 0x07	; 7
    1af2:	81 bb       	out	0x11, r24	; 17
	//////////////////////////////////////////////////////////////////////////
	
	adc_init(); // Analog digital COnverter initialiseren 
    1af4:	0e 94 98 07 	call	0xf30	; 0xf30 <adc_init>
	
    while (1) 
    {
		buttons = pcf8574_get_inputs(0x20);
    1af8:	80 e2       	ldi	r24, 0x20	; 32
    1afa:	0e 94 89 0d 	call	0x1b12	; 0x1b12 <pcf8574_get_inputs>
    1afe:	80 93 70 00 	sts	0x0070, r24	; 0x800070 <buttons>
		
		buttonCheck(buttons);
    1b02:	60 91 70 00 	lds	r22, 0x0070	; 0x800070 <buttons>
    1b06:	70 e0       	ldi	r23, 0x00	; 0
    1b08:	80 e0       	ldi	r24, 0x00	; 0
    1b0a:	90 e0       	ldi	r25, 0x00	; 0
    1b0c:	0e 94 0b 0c 	call	0x1816	; 0x1816 <buttonCheck>
    1b10:	f3 cf       	rjmp	.-26     	; 0x1af8 <main+0x10>

00001b12 <pcf8574_get_inputs>:
    1b12:	cf 93       	push	r28
    1b14:	c8 2f       	mov	r28, r24
    1b16:	0e 94 7a 09 	call	0x12f4	; 0x12f4 <i2c_init>
    1b1a:	0e 94 7e 09 	call	0x12fc	; 0x12fc <i2c_send_start>
    1b1e:	61 e0       	ldi	r22, 0x01	; 1
    1b20:	8c 2f       	mov	r24, r28
    1b22:	0e 94 88 09 	call	0x1310	; 0x1310 <i2c_send_add_rw>
    1b26:	0e 94 9b 09 	call	0x1336	; 0x1336 <i2c_read_byte>
    1b2a:	c8 2f       	mov	r28, r24
    1b2c:	0e 94 85 09 	call	0x130a	; 0x130a <i2c_send_stop>
    1b30:	8c 2f       	mov	r24, r28
    1b32:	cf 91       	pop	r28
    1b34:	08 95       	ret

00001b36 <pcf8574_set_outputs>:
    1b36:	cf 93       	push	r28
    1b38:	df 93       	push	r29
    1b3a:	d8 2f       	mov	r29, r24
    1b3c:	c6 2f       	mov	r28, r22
    1b3e:	0e 94 7a 09 	call	0x12f4	; 0x12f4 <i2c_init>
    1b42:	0e 94 7e 09 	call	0x12fc	; 0x12fc <i2c_send_start>
    1b46:	60 e0       	ldi	r22, 0x00	; 0
    1b48:	8d 2f       	mov	r24, r29
    1b4a:	0e 94 88 09 	call	0x1310	; 0x1310 <i2c_send_add_rw>
    1b4e:	8c 2f       	mov	r24, r28
    1b50:	0e 94 93 09 	call	0x1326	; 0x1326 <i2c_send_byte>
    1b54:	0e 94 85 09 	call	0x130a	; 0x130a <i2c_send_stop>
    1b58:	df 91       	pop	r29
    1b5a:	cf 91       	pop	r28
    1b5c:	08 95       	ret

00001b5e <__cmpsf2>:
    1b5e:	0e 94 f1 0d 	call	0x1be2	; 0x1be2 <__fp_cmp>
    1b62:	08 f4       	brcc	.+2      	; 0x1b66 <__cmpsf2+0x8>
    1b64:	81 e0       	ldi	r24, 0x01	; 1
    1b66:	08 95       	ret

00001b68 <__floatunsisf>:
    1b68:	e8 94       	clt
    1b6a:	09 c0       	rjmp	.+18     	; 0x1b7e <__floatsisf+0x12>

00001b6c <__floatsisf>:
    1b6c:	97 fb       	bst	r25, 7
    1b6e:	3e f4       	brtc	.+14     	; 0x1b7e <__floatsisf+0x12>
    1b70:	90 95       	com	r25
    1b72:	80 95       	com	r24
    1b74:	70 95       	com	r23
    1b76:	61 95       	neg	r22
    1b78:	7f 4f       	sbci	r23, 0xFF	; 255
    1b7a:	8f 4f       	sbci	r24, 0xFF	; 255
    1b7c:	9f 4f       	sbci	r25, 0xFF	; 255
    1b7e:	99 23       	and	r25, r25
    1b80:	a9 f0       	breq	.+42     	; 0x1bac <__floatsisf+0x40>
    1b82:	f9 2f       	mov	r31, r25
    1b84:	96 e9       	ldi	r25, 0x96	; 150
    1b86:	bb 27       	eor	r27, r27
    1b88:	93 95       	inc	r25
    1b8a:	f6 95       	lsr	r31
    1b8c:	87 95       	ror	r24
    1b8e:	77 95       	ror	r23
    1b90:	67 95       	ror	r22
    1b92:	b7 95       	ror	r27
    1b94:	f1 11       	cpse	r31, r1
    1b96:	f8 cf       	rjmp	.-16     	; 0x1b88 <__floatsisf+0x1c>
    1b98:	fa f4       	brpl	.+62     	; 0x1bd8 <__floatsisf+0x6c>
    1b9a:	bb 0f       	add	r27, r27
    1b9c:	11 f4       	brne	.+4      	; 0x1ba2 <__floatsisf+0x36>
    1b9e:	60 ff       	sbrs	r22, 0
    1ba0:	1b c0       	rjmp	.+54     	; 0x1bd8 <__floatsisf+0x6c>
    1ba2:	6f 5f       	subi	r22, 0xFF	; 255
    1ba4:	7f 4f       	sbci	r23, 0xFF	; 255
    1ba6:	8f 4f       	sbci	r24, 0xFF	; 255
    1ba8:	9f 4f       	sbci	r25, 0xFF	; 255
    1baa:	16 c0       	rjmp	.+44     	; 0x1bd8 <__floatsisf+0x6c>
    1bac:	88 23       	and	r24, r24
    1bae:	11 f0       	breq	.+4      	; 0x1bb4 <__floatsisf+0x48>
    1bb0:	96 e9       	ldi	r25, 0x96	; 150
    1bb2:	11 c0       	rjmp	.+34     	; 0x1bd6 <__floatsisf+0x6a>
    1bb4:	77 23       	and	r23, r23
    1bb6:	21 f0       	breq	.+8      	; 0x1bc0 <__floatsisf+0x54>
    1bb8:	9e e8       	ldi	r25, 0x8E	; 142
    1bba:	87 2f       	mov	r24, r23
    1bbc:	76 2f       	mov	r23, r22
    1bbe:	05 c0       	rjmp	.+10     	; 0x1bca <__floatsisf+0x5e>
    1bc0:	66 23       	and	r22, r22
    1bc2:	71 f0       	breq	.+28     	; 0x1be0 <__floatsisf+0x74>
    1bc4:	96 e8       	ldi	r25, 0x86	; 134
    1bc6:	86 2f       	mov	r24, r22
    1bc8:	70 e0       	ldi	r23, 0x00	; 0
    1bca:	60 e0       	ldi	r22, 0x00	; 0
    1bcc:	2a f0       	brmi	.+10     	; 0x1bd8 <__floatsisf+0x6c>
    1bce:	9a 95       	dec	r25
    1bd0:	66 0f       	add	r22, r22
    1bd2:	77 1f       	adc	r23, r23
    1bd4:	88 1f       	adc	r24, r24
    1bd6:	da f7       	brpl	.-10     	; 0x1bce <__floatsisf+0x62>
    1bd8:	88 0f       	add	r24, r24
    1bda:	96 95       	lsr	r25
    1bdc:	87 95       	ror	r24
    1bde:	97 f9       	bld	r25, 7
    1be0:	08 95       	ret

00001be2 <__fp_cmp>:
    1be2:	99 0f       	add	r25, r25
    1be4:	00 08       	sbc	r0, r0
    1be6:	55 0f       	add	r21, r21
    1be8:	aa 0b       	sbc	r26, r26
    1bea:	e0 e8       	ldi	r30, 0x80	; 128
    1bec:	fe ef       	ldi	r31, 0xFE	; 254
    1bee:	16 16       	cp	r1, r22
    1bf0:	17 06       	cpc	r1, r23
    1bf2:	e8 07       	cpc	r30, r24
    1bf4:	f9 07       	cpc	r31, r25
    1bf6:	c0 f0       	brcs	.+48     	; 0x1c28 <__fp_cmp+0x46>
    1bf8:	12 16       	cp	r1, r18
    1bfa:	13 06       	cpc	r1, r19
    1bfc:	e4 07       	cpc	r30, r20
    1bfe:	f5 07       	cpc	r31, r21
    1c00:	98 f0       	brcs	.+38     	; 0x1c28 <__fp_cmp+0x46>
    1c02:	62 1b       	sub	r22, r18
    1c04:	73 0b       	sbc	r23, r19
    1c06:	84 0b       	sbc	r24, r20
    1c08:	95 0b       	sbc	r25, r21
    1c0a:	39 f4       	brne	.+14     	; 0x1c1a <__fp_cmp+0x38>
    1c0c:	0a 26       	eor	r0, r26
    1c0e:	61 f0       	breq	.+24     	; 0x1c28 <__fp_cmp+0x46>
    1c10:	23 2b       	or	r18, r19
    1c12:	24 2b       	or	r18, r20
    1c14:	25 2b       	or	r18, r21
    1c16:	21 f4       	brne	.+8      	; 0x1c20 <__fp_cmp+0x3e>
    1c18:	08 95       	ret
    1c1a:	0a 26       	eor	r0, r26
    1c1c:	09 f4       	brne	.+2      	; 0x1c20 <__fp_cmp+0x3e>
    1c1e:	a1 40       	sbci	r26, 0x01	; 1
    1c20:	a6 95       	lsr	r26
    1c22:	8f ef       	ldi	r24, 0xFF	; 255
    1c24:	81 1d       	adc	r24, r1
    1c26:	81 1d       	adc	r24, r1
    1c28:	08 95       	ret

00001c2a <__fp_inf>:
    1c2a:	97 f9       	bld	r25, 7
    1c2c:	9f 67       	ori	r25, 0x7F	; 127
    1c2e:	80 e8       	ldi	r24, 0x80	; 128
    1c30:	70 e0       	ldi	r23, 0x00	; 0
    1c32:	60 e0       	ldi	r22, 0x00	; 0
    1c34:	08 95       	ret

00001c36 <__fp_nan>:
    1c36:	9f ef       	ldi	r25, 0xFF	; 255
    1c38:	80 ec       	ldi	r24, 0xC0	; 192
    1c3a:	08 95       	ret

00001c3c <__fp_pscA>:
    1c3c:	00 24       	eor	r0, r0
    1c3e:	0a 94       	dec	r0
    1c40:	16 16       	cp	r1, r22
    1c42:	17 06       	cpc	r1, r23
    1c44:	18 06       	cpc	r1, r24
    1c46:	09 06       	cpc	r0, r25
    1c48:	08 95       	ret

00001c4a <__fp_pscB>:
    1c4a:	00 24       	eor	r0, r0
    1c4c:	0a 94       	dec	r0
    1c4e:	12 16       	cp	r1, r18
    1c50:	13 06       	cpc	r1, r19
    1c52:	14 06       	cpc	r1, r20
    1c54:	05 06       	cpc	r0, r21
    1c56:	08 95       	ret

00001c58 <__fp_round>:
    1c58:	09 2e       	mov	r0, r25
    1c5a:	03 94       	inc	r0
    1c5c:	00 0c       	add	r0, r0
    1c5e:	11 f4       	brne	.+4      	; 0x1c64 <__fp_round+0xc>
    1c60:	88 23       	and	r24, r24
    1c62:	52 f0       	brmi	.+20     	; 0x1c78 <__fp_round+0x20>
    1c64:	bb 0f       	add	r27, r27
    1c66:	40 f4       	brcc	.+16     	; 0x1c78 <__fp_round+0x20>
    1c68:	bf 2b       	or	r27, r31
    1c6a:	11 f4       	brne	.+4      	; 0x1c70 <__fp_round+0x18>
    1c6c:	60 ff       	sbrs	r22, 0
    1c6e:	04 c0       	rjmp	.+8      	; 0x1c78 <__fp_round+0x20>
    1c70:	6f 5f       	subi	r22, 0xFF	; 255
    1c72:	7f 4f       	sbci	r23, 0xFF	; 255
    1c74:	8f 4f       	sbci	r24, 0xFF	; 255
    1c76:	9f 4f       	sbci	r25, 0xFF	; 255
    1c78:	08 95       	ret

00001c7a <__fp_split3>:
    1c7a:	57 fd       	sbrc	r21, 7
    1c7c:	90 58       	subi	r25, 0x80	; 128
    1c7e:	44 0f       	add	r20, r20
    1c80:	55 1f       	adc	r21, r21
    1c82:	59 f0       	breq	.+22     	; 0x1c9a <__fp_splitA+0x10>
    1c84:	5f 3f       	cpi	r21, 0xFF	; 255
    1c86:	71 f0       	breq	.+28     	; 0x1ca4 <__fp_splitA+0x1a>
    1c88:	47 95       	ror	r20

00001c8a <__fp_splitA>:
    1c8a:	88 0f       	add	r24, r24
    1c8c:	97 fb       	bst	r25, 7
    1c8e:	99 1f       	adc	r25, r25
    1c90:	61 f0       	breq	.+24     	; 0x1caa <__fp_splitA+0x20>
    1c92:	9f 3f       	cpi	r25, 0xFF	; 255
    1c94:	79 f0       	breq	.+30     	; 0x1cb4 <__fp_splitA+0x2a>
    1c96:	87 95       	ror	r24
    1c98:	08 95       	ret
    1c9a:	12 16       	cp	r1, r18
    1c9c:	13 06       	cpc	r1, r19
    1c9e:	14 06       	cpc	r1, r20
    1ca0:	55 1f       	adc	r21, r21
    1ca2:	f2 cf       	rjmp	.-28     	; 0x1c88 <__fp_split3+0xe>
    1ca4:	46 95       	lsr	r20
    1ca6:	f1 df       	rcall	.-30     	; 0x1c8a <__fp_splitA>
    1ca8:	08 c0       	rjmp	.+16     	; 0x1cba <__fp_splitA+0x30>
    1caa:	16 16       	cp	r1, r22
    1cac:	17 06       	cpc	r1, r23
    1cae:	18 06       	cpc	r1, r24
    1cb0:	99 1f       	adc	r25, r25
    1cb2:	f1 cf       	rjmp	.-30     	; 0x1c96 <__fp_splitA+0xc>
    1cb4:	86 95       	lsr	r24
    1cb6:	71 05       	cpc	r23, r1
    1cb8:	61 05       	cpc	r22, r1
    1cba:	08 94       	sec
    1cbc:	08 95       	ret

00001cbe <__fp_zero>:
    1cbe:	e8 94       	clt

00001cc0 <__fp_szero>:
    1cc0:	bb 27       	eor	r27, r27
    1cc2:	66 27       	eor	r22, r22
    1cc4:	77 27       	eor	r23, r23
    1cc6:	cb 01       	movw	r24, r22
    1cc8:	97 f9       	bld	r25, 7
    1cca:	08 95       	ret

00001ccc <__gesf2>:
    1ccc:	0e 94 f1 0d 	call	0x1be2	; 0x1be2 <__fp_cmp>
    1cd0:	08 f4       	brcc	.+2      	; 0x1cd4 <__gesf2+0x8>
    1cd2:	8f ef       	ldi	r24, 0xFF	; 255
    1cd4:	08 95       	ret

00001cd6 <__mulsf3>:
    1cd6:	0e 94 7e 0e 	call	0x1cfc	; 0x1cfc <__mulsf3x>
    1cda:	0c 94 2c 0e 	jmp	0x1c58	; 0x1c58 <__fp_round>
    1cde:	0e 94 1e 0e 	call	0x1c3c	; 0x1c3c <__fp_pscA>
    1ce2:	38 f0       	brcs	.+14     	; 0x1cf2 <__mulsf3+0x1c>
    1ce4:	0e 94 25 0e 	call	0x1c4a	; 0x1c4a <__fp_pscB>
    1ce8:	20 f0       	brcs	.+8      	; 0x1cf2 <__mulsf3+0x1c>
    1cea:	95 23       	and	r25, r21
    1cec:	11 f0       	breq	.+4      	; 0x1cf2 <__mulsf3+0x1c>
    1cee:	0c 94 15 0e 	jmp	0x1c2a	; 0x1c2a <__fp_inf>
    1cf2:	0c 94 1b 0e 	jmp	0x1c36	; 0x1c36 <__fp_nan>
    1cf6:	11 24       	eor	r1, r1
    1cf8:	0c 94 60 0e 	jmp	0x1cc0	; 0x1cc0 <__fp_szero>

00001cfc <__mulsf3x>:
    1cfc:	0e 94 3d 0e 	call	0x1c7a	; 0x1c7a <__fp_split3>
    1d00:	70 f3       	brcs	.-36     	; 0x1cde <__mulsf3+0x8>

00001d02 <__mulsf3_pse>:
    1d02:	95 9f       	mul	r25, r21
    1d04:	c1 f3       	breq	.-16     	; 0x1cf6 <__mulsf3+0x20>
    1d06:	95 0f       	add	r25, r21
    1d08:	50 e0       	ldi	r21, 0x00	; 0
    1d0a:	55 1f       	adc	r21, r21
    1d0c:	62 9f       	mul	r22, r18
    1d0e:	f0 01       	movw	r30, r0
    1d10:	72 9f       	mul	r23, r18
    1d12:	bb 27       	eor	r27, r27
    1d14:	f0 0d       	add	r31, r0
    1d16:	b1 1d       	adc	r27, r1
    1d18:	63 9f       	mul	r22, r19
    1d1a:	aa 27       	eor	r26, r26
    1d1c:	f0 0d       	add	r31, r0
    1d1e:	b1 1d       	adc	r27, r1
    1d20:	aa 1f       	adc	r26, r26
    1d22:	64 9f       	mul	r22, r20
    1d24:	66 27       	eor	r22, r22
    1d26:	b0 0d       	add	r27, r0
    1d28:	a1 1d       	adc	r26, r1
    1d2a:	66 1f       	adc	r22, r22
    1d2c:	82 9f       	mul	r24, r18
    1d2e:	22 27       	eor	r18, r18
    1d30:	b0 0d       	add	r27, r0
    1d32:	a1 1d       	adc	r26, r1
    1d34:	62 1f       	adc	r22, r18
    1d36:	73 9f       	mul	r23, r19
    1d38:	b0 0d       	add	r27, r0
    1d3a:	a1 1d       	adc	r26, r1
    1d3c:	62 1f       	adc	r22, r18
    1d3e:	83 9f       	mul	r24, r19
    1d40:	a0 0d       	add	r26, r0
    1d42:	61 1d       	adc	r22, r1
    1d44:	22 1f       	adc	r18, r18
    1d46:	74 9f       	mul	r23, r20
    1d48:	33 27       	eor	r19, r19
    1d4a:	a0 0d       	add	r26, r0
    1d4c:	61 1d       	adc	r22, r1
    1d4e:	23 1f       	adc	r18, r19
    1d50:	84 9f       	mul	r24, r20
    1d52:	60 0d       	add	r22, r0
    1d54:	21 1d       	adc	r18, r1
    1d56:	82 2f       	mov	r24, r18
    1d58:	76 2f       	mov	r23, r22
    1d5a:	6a 2f       	mov	r22, r26
    1d5c:	11 24       	eor	r1, r1
    1d5e:	9f 57       	subi	r25, 0x7F	; 127
    1d60:	50 40       	sbci	r21, 0x00	; 0
    1d62:	9a f0       	brmi	.+38     	; 0x1d8a <__mulsf3_pse+0x88>
    1d64:	f1 f0       	breq	.+60     	; 0x1da2 <__mulsf3_pse+0xa0>
    1d66:	88 23       	and	r24, r24
    1d68:	4a f0       	brmi	.+18     	; 0x1d7c <__mulsf3_pse+0x7a>
    1d6a:	ee 0f       	add	r30, r30
    1d6c:	ff 1f       	adc	r31, r31
    1d6e:	bb 1f       	adc	r27, r27
    1d70:	66 1f       	adc	r22, r22
    1d72:	77 1f       	adc	r23, r23
    1d74:	88 1f       	adc	r24, r24
    1d76:	91 50       	subi	r25, 0x01	; 1
    1d78:	50 40       	sbci	r21, 0x00	; 0
    1d7a:	a9 f7       	brne	.-22     	; 0x1d66 <__mulsf3_pse+0x64>
    1d7c:	9e 3f       	cpi	r25, 0xFE	; 254
    1d7e:	51 05       	cpc	r21, r1
    1d80:	80 f0       	brcs	.+32     	; 0x1da2 <__mulsf3_pse+0xa0>
    1d82:	0c 94 15 0e 	jmp	0x1c2a	; 0x1c2a <__fp_inf>
    1d86:	0c 94 60 0e 	jmp	0x1cc0	; 0x1cc0 <__fp_szero>
    1d8a:	5f 3f       	cpi	r21, 0xFF	; 255
    1d8c:	e4 f3       	brlt	.-8      	; 0x1d86 <__mulsf3_pse+0x84>
    1d8e:	98 3e       	cpi	r25, 0xE8	; 232
    1d90:	d4 f3       	brlt	.-12     	; 0x1d86 <__mulsf3_pse+0x84>
    1d92:	86 95       	lsr	r24
    1d94:	77 95       	ror	r23
    1d96:	67 95       	ror	r22
    1d98:	b7 95       	ror	r27
    1d9a:	f7 95       	ror	r31
    1d9c:	e7 95       	ror	r30
    1d9e:	9f 5f       	subi	r25, 0xFF	; 255
    1da0:	c1 f7       	brne	.-16     	; 0x1d92 <__mulsf3_pse+0x90>
    1da2:	fe 2b       	or	r31, r30
    1da4:	88 0f       	add	r24, r24
    1da6:	91 1d       	adc	r25, r1
    1da8:	96 95       	lsr	r25
    1daa:	87 95       	ror	r24
    1dac:	97 f9       	bld	r25, 7
    1dae:	08 95       	ret

00001db0 <__tablejump2__>:
    1db0:	ee 0f       	add	r30, r30
    1db2:	ff 1f       	adc	r31, r31
    1db4:	05 90       	lpm	r0, Z+
    1db6:	f4 91       	lpm	r31, Z
    1db8:	e0 2d       	mov	r30, r0
    1dba:	09 94       	ijmp

00001dbc <dtostrf>:
    1dbc:	ef 92       	push	r14
    1dbe:	0f 93       	push	r16
    1dc0:	1f 93       	push	r17
    1dc2:	cf 93       	push	r28
    1dc4:	df 93       	push	r29
    1dc6:	e8 01       	movw	r28, r16
    1dc8:	47 fd       	sbrc	r20, 7
    1dca:	02 c0       	rjmp	.+4      	; 0x1dd0 <dtostrf+0x14>
    1dcc:	34 e0       	ldi	r19, 0x04	; 4
    1dce:	01 c0       	rjmp	.+2      	; 0x1dd2 <dtostrf+0x16>
    1dd0:	34 e1       	ldi	r19, 0x14	; 20
    1dd2:	04 2e       	mov	r0, r20
    1dd4:	00 0c       	add	r0, r0
    1dd6:	55 0b       	sbc	r21, r21
    1dd8:	57 ff       	sbrs	r21, 7
    1dda:	03 c0       	rjmp	.+6      	; 0x1de2 <dtostrf+0x26>
    1ddc:	51 95       	neg	r21
    1dde:	41 95       	neg	r20
    1de0:	51 09       	sbc	r21, r1
    1de2:	e3 2e       	mov	r14, r19
    1de4:	02 2f       	mov	r16, r18
    1de6:	24 2f       	mov	r18, r20
    1de8:	ae 01       	movw	r20, r28
    1dea:	0e 94 30 12 	call	0x2460	; 0x2460 <dtoa_prf>
    1dee:	ce 01       	movw	r24, r28
    1df0:	df 91       	pop	r29
    1df2:	cf 91       	pop	r28
    1df4:	1f 91       	pop	r17
    1df6:	0f 91       	pop	r16
    1df8:	ef 90       	pop	r14
    1dfa:	08 95       	ret

00001dfc <malloc>:
    1dfc:	0f 93       	push	r16
    1dfe:	1f 93       	push	r17
    1e00:	cf 93       	push	r28
    1e02:	df 93       	push	r29
    1e04:	82 30       	cpi	r24, 0x02	; 2
    1e06:	91 05       	cpc	r25, r1
    1e08:	10 f4       	brcc	.+4      	; 0x1e0e <malloc+0x12>
    1e0a:	82 e0       	ldi	r24, 0x02	; 2
    1e0c:	90 e0       	ldi	r25, 0x00	; 0
    1e0e:	e0 91 d2 01 	lds	r30, 0x01D2	; 0x8001d2 <__flp>
    1e12:	f0 91 d3 01 	lds	r31, 0x01D3	; 0x8001d3 <__flp+0x1>
    1e16:	20 e0       	ldi	r18, 0x00	; 0
    1e18:	30 e0       	ldi	r19, 0x00	; 0
    1e1a:	a0 e0       	ldi	r26, 0x00	; 0
    1e1c:	b0 e0       	ldi	r27, 0x00	; 0
    1e1e:	30 97       	sbiw	r30, 0x00	; 0
    1e20:	19 f1       	breq	.+70     	; 0x1e68 <malloc+0x6c>
    1e22:	40 81       	ld	r20, Z
    1e24:	51 81       	ldd	r21, Z+1	; 0x01
    1e26:	02 81       	ldd	r16, Z+2	; 0x02
    1e28:	13 81       	ldd	r17, Z+3	; 0x03
    1e2a:	48 17       	cp	r20, r24
    1e2c:	59 07       	cpc	r21, r25
    1e2e:	c8 f0       	brcs	.+50     	; 0x1e62 <malloc+0x66>
    1e30:	84 17       	cp	r24, r20
    1e32:	95 07       	cpc	r25, r21
    1e34:	69 f4       	brne	.+26     	; 0x1e50 <malloc+0x54>
    1e36:	10 97       	sbiw	r26, 0x00	; 0
    1e38:	31 f0       	breq	.+12     	; 0x1e46 <malloc+0x4a>
    1e3a:	12 96       	adiw	r26, 0x02	; 2
    1e3c:	0c 93       	st	X, r16
    1e3e:	12 97       	sbiw	r26, 0x02	; 2
    1e40:	13 96       	adiw	r26, 0x03	; 3
    1e42:	1c 93       	st	X, r17
    1e44:	27 c0       	rjmp	.+78     	; 0x1e94 <malloc+0x98>
    1e46:	00 93 d2 01 	sts	0x01D2, r16	; 0x8001d2 <__flp>
    1e4a:	10 93 d3 01 	sts	0x01D3, r17	; 0x8001d3 <__flp+0x1>
    1e4e:	22 c0       	rjmp	.+68     	; 0x1e94 <malloc+0x98>
    1e50:	21 15       	cp	r18, r1
    1e52:	31 05       	cpc	r19, r1
    1e54:	19 f0       	breq	.+6      	; 0x1e5c <malloc+0x60>
    1e56:	42 17       	cp	r20, r18
    1e58:	53 07       	cpc	r21, r19
    1e5a:	18 f4       	brcc	.+6      	; 0x1e62 <malloc+0x66>
    1e5c:	9a 01       	movw	r18, r20
    1e5e:	bd 01       	movw	r22, r26
    1e60:	ef 01       	movw	r28, r30
    1e62:	df 01       	movw	r26, r30
    1e64:	f8 01       	movw	r30, r16
    1e66:	db cf       	rjmp	.-74     	; 0x1e1e <malloc+0x22>
    1e68:	21 15       	cp	r18, r1
    1e6a:	31 05       	cpc	r19, r1
    1e6c:	f9 f0       	breq	.+62     	; 0x1eac <malloc+0xb0>
    1e6e:	28 1b       	sub	r18, r24
    1e70:	39 0b       	sbc	r19, r25
    1e72:	24 30       	cpi	r18, 0x04	; 4
    1e74:	31 05       	cpc	r19, r1
    1e76:	80 f4       	brcc	.+32     	; 0x1e98 <malloc+0x9c>
    1e78:	8a 81       	ldd	r24, Y+2	; 0x02
    1e7a:	9b 81       	ldd	r25, Y+3	; 0x03
    1e7c:	61 15       	cp	r22, r1
    1e7e:	71 05       	cpc	r23, r1
    1e80:	21 f0       	breq	.+8      	; 0x1e8a <malloc+0x8e>
    1e82:	fb 01       	movw	r30, r22
    1e84:	93 83       	std	Z+3, r25	; 0x03
    1e86:	82 83       	std	Z+2, r24	; 0x02
    1e88:	04 c0       	rjmp	.+8      	; 0x1e92 <malloc+0x96>
    1e8a:	90 93 d3 01 	sts	0x01D3, r25	; 0x8001d3 <__flp+0x1>
    1e8e:	80 93 d2 01 	sts	0x01D2, r24	; 0x8001d2 <__flp>
    1e92:	fe 01       	movw	r30, r28
    1e94:	32 96       	adiw	r30, 0x02	; 2
    1e96:	44 c0       	rjmp	.+136    	; 0x1f20 <malloc+0x124>
    1e98:	fe 01       	movw	r30, r28
    1e9a:	e2 0f       	add	r30, r18
    1e9c:	f3 1f       	adc	r31, r19
    1e9e:	81 93       	st	Z+, r24
    1ea0:	91 93       	st	Z+, r25
    1ea2:	22 50       	subi	r18, 0x02	; 2
    1ea4:	31 09       	sbc	r19, r1
    1ea6:	39 83       	std	Y+1, r19	; 0x01
    1ea8:	28 83       	st	Y, r18
    1eaa:	3a c0       	rjmp	.+116    	; 0x1f20 <malloc+0x124>
    1eac:	20 91 d0 01 	lds	r18, 0x01D0	; 0x8001d0 <__brkval>
    1eb0:	30 91 d1 01 	lds	r19, 0x01D1	; 0x8001d1 <__brkval+0x1>
    1eb4:	23 2b       	or	r18, r19
    1eb6:	41 f4       	brne	.+16     	; 0x1ec8 <malloc+0xcc>
    1eb8:	20 91 62 00 	lds	r18, 0x0062	; 0x800062 <__malloc_heap_start>
    1ebc:	30 91 63 00 	lds	r19, 0x0063	; 0x800063 <__malloc_heap_start+0x1>
    1ec0:	30 93 d1 01 	sts	0x01D1, r19	; 0x8001d1 <__brkval+0x1>
    1ec4:	20 93 d0 01 	sts	0x01D0, r18	; 0x8001d0 <__brkval>
    1ec8:	20 91 60 00 	lds	r18, 0x0060	; 0x800060 <__DATA_REGION_ORIGIN__>
    1ecc:	30 91 61 00 	lds	r19, 0x0061	; 0x800061 <__DATA_REGION_ORIGIN__+0x1>
    1ed0:	21 15       	cp	r18, r1
    1ed2:	31 05       	cpc	r19, r1
    1ed4:	41 f4       	brne	.+16     	; 0x1ee6 <malloc+0xea>
    1ed6:	2d b7       	in	r18, 0x3d	; 61
    1ed8:	3e b7       	in	r19, 0x3e	; 62
    1eda:	40 91 64 00 	lds	r20, 0x0064	; 0x800064 <__malloc_margin>
    1ede:	50 91 65 00 	lds	r21, 0x0065	; 0x800065 <__malloc_margin+0x1>
    1ee2:	24 1b       	sub	r18, r20
    1ee4:	35 0b       	sbc	r19, r21
    1ee6:	e0 91 d0 01 	lds	r30, 0x01D0	; 0x8001d0 <__brkval>
    1eea:	f0 91 d1 01 	lds	r31, 0x01D1	; 0x8001d1 <__brkval+0x1>
    1eee:	e2 17       	cp	r30, r18
    1ef0:	f3 07       	cpc	r31, r19
    1ef2:	a0 f4       	brcc	.+40     	; 0x1f1c <malloc+0x120>
    1ef4:	2e 1b       	sub	r18, r30
    1ef6:	3f 0b       	sbc	r19, r31
    1ef8:	28 17       	cp	r18, r24
    1efa:	39 07       	cpc	r19, r25
    1efc:	78 f0       	brcs	.+30     	; 0x1f1c <malloc+0x120>
    1efe:	ac 01       	movw	r20, r24
    1f00:	4e 5f       	subi	r20, 0xFE	; 254
    1f02:	5f 4f       	sbci	r21, 0xFF	; 255
    1f04:	24 17       	cp	r18, r20
    1f06:	35 07       	cpc	r19, r21
    1f08:	48 f0       	brcs	.+18     	; 0x1f1c <malloc+0x120>
    1f0a:	4e 0f       	add	r20, r30
    1f0c:	5f 1f       	adc	r21, r31
    1f0e:	50 93 d1 01 	sts	0x01D1, r21	; 0x8001d1 <__brkval+0x1>
    1f12:	40 93 d0 01 	sts	0x01D0, r20	; 0x8001d0 <__brkval>
    1f16:	81 93       	st	Z+, r24
    1f18:	91 93       	st	Z+, r25
    1f1a:	02 c0       	rjmp	.+4      	; 0x1f20 <malloc+0x124>
    1f1c:	e0 e0       	ldi	r30, 0x00	; 0
    1f1e:	f0 e0       	ldi	r31, 0x00	; 0
    1f20:	cf 01       	movw	r24, r30
    1f22:	df 91       	pop	r29
    1f24:	cf 91       	pop	r28
    1f26:	1f 91       	pop	r17
    1f28:	0f 91       	pop	r16
    1f2a:	08 95       	ret

00001f2c <free>:
    1f2c:	cf 93       	push	r28
    1f2e:	df 93       	push	r29
    1f30:	00 97       	sbiw	r24, 0x00	; 0
    1f32:	09 f4       	brne	.+2      	; 0x1f36 <free+0xa>
    1f34:	81 c0       	rjmp	.+258    	; 0x2038 <free+0x10c>
    1f36:	fc 01       	movw	r30, r24
    1f38:	32 97       	sbiw	r30, 0x02	; 2
    1f3a:	13 82       	std	Z+3, r1	; 0x03
    1f3c:	12 82       	std	Z+2, r1	; 0x02
    1f3e:	a0 91 d2 01 	lds	r26, 0x01D2	; 0x8001d2 <__flp>
    1f42:	b0 91 d3 01 	lds	r27, 0x01D3	; 0x8001d3 <__flp+0x1>
    1f46:	10 97       	sbiw	r26, 0x00	; 0
    1f48:	81 f4       	brne	.+32     	; 0x1f6a <free+0x3e>
    1f4a:	20 81       	ld	r18, Z
    1f4c:	31 81       	ldd	r19, Z+1	; 0x01
    1f4e:	82 0f       	add	r24, r18
    1f50:	93 1f       	adc	r25, r19
    1f52:	20 91 d0 01 	lds	r18, 0x01D0	; 0x8001d0 <__brkval>
    1f56:	30 91 d1 01 	lds	r19, 0x01D1	; 0x8001d1 <__brkval+0x1>
    1f5a:	28 17       	cp	r18, r24
    1f5c:	39 07       	cpc	r19, r25
    1f5e:	51 f5       	brne	.+84     	; 0x1fb4 <free+0x88>
    1f60:	f0 93 d1 01 	sts	0x01D1, r31	; 0x8001d1 <__brkval+0x1>
    1f64:	e0 93 d0 01 	sts	0x01D0, r30	; 0x8001d0 <__brkval>
    1f68:	67 c0       	rjmp	.+206    	; 0x2038 <free+0x10c>
    1f6a:	ed 01       	movw	r28, r26
    1f6c:	20 e0       	ldi	r18, 0x00	; 0
    1f6e:	30 e0       	ldi	r19, 0x00	; 0
    1f70:	ce 17       	cp	r28, r30
    1f72:	df 07       	cpc	r29, r31
    1f74:	40 f4       	brcc	.+16     	; 0x1f86 <free+0x5a>
    1f76:	4a 81       	ldd	r20, Y+2	; 0x02
    1f78:	5b 81       	ldd	r21, Y+3	; 0x03
    1f7a:	9e 01       	movw	r18, r28
    1f7c:	41 15       	cp	r20, r1
    1f7e:	51 05       	cpc	r21, r1
    1f80:	f1 f0       	breq	.+60     	; 0x1fbe <free+0x92>
    1f82:	ea 01       	movw	r28, r20
    1f84:	f5 cf       	rjmp	.-22     	; 0x1f70 <free+0x44>
    1f86:	d3 83       	std	Z+3, r29	; 0x03
    1f88:	c2 83       	std	Z+2, r28	; 0x02
    1f8a:	40 81       	ld	r20, Z
    1f8c:	51 81       	ldd	r21, Z+1	; 0x01
    1f8e:	84 0f       	add	r24, r20
    1f90:	95 1f       	adc	r25, r21
    1f92:	c8 17       	cp	r28, r24
    1f94:	d9 07       	cpc	r29, r25
    1f96:	59 f4       	brne	.+22     	; 0x1fae <free+0x82>
    1f98:	88 81       	ld	r24, Y
    1f9a:	99 81       	ldd	r25, Y+1	; 0x01
    1f9c:	84 0f       	add	r24, r20
    1f9e:	95 1f       	adc	r25, r21
    1fa0:	02 96       	adiw	r24, 0x02	; 2
    1fa2:	91 83       	std	Z+1, r25	; 0x01
    1fa4:	80 83       	st	Z, r24
    1fa6:	8a 81       	ldd	r24, Y+2	; 0x02
    1fa8:	9b 81       	ldd	r25, Y+3	; 0x03
    1faa:	93 83       	std	Z+3, r25	; 0x03
    1fac:	82 83       	std	Z+2, r24	; 0x02
    1fae:	21 15       	cp	r18, r1
    1fb0:	31 05       	cpc	r19, r1
    1fb2:	29 f4       	brne	.+10     	; 0x1fbe <free+0x92>
    1fb4:	f0 93 d3 01 	sts	0x01D3, r31	; 0x8001d3 <__flp+0x1>
    1fb8:	e0 93 d2 01 	sts	0x01D2, r30	; 0x8001d2 <__flp>
    1fbc:	3d c0       	rjmp	.+122    	; 0x2038 <free+0x10c>
    1fbe:	e9 01       	movw	r28, r18
    1fc0:	fb 83       	std	Y+3, r31	; 0x03
    1fc2:	ea 83       	std	Y+2, r30	; 0x02
    1fc4:	49 91       	ld	r20, Y+
    1fc6:	59 91       	ld	r21, Y+
    1fc8:	c4 0f       	add	r28, r20
    1fca:	d5 1f       	adc	r29, r21
    1fcc:	ec 17       	cp	r30, r28
    1fce:	fd 07       	cpc	r31, r29
    1fd0:	61 f4       	brne	.+24     	; 0x1fea <free+0xbe>
    1fd2:	80 81       	ld	r24, Z
    1fd4:	91 81       	ldd	r25, Z+1	; 0x01
    1fd6:	84 0f       	add	r24, r20
    1fd8:	95 1f       	adc	r25, r21
    1fda:	02 96       	adiw	r24, 0x02	; 2
    1fdc:	e9 01       	movw	r28, r18
    1fde:	99 83       	std	Y+1, r25	; 0x01
    1fe0:	88 83       	st	Y, r24
    1fe2:	82 81       	ldd	r24, Z+2	; 0x02
    1fe4:	93 81       	ldd	r25, Z+3	; 0x03
    1fe6:	9b 83       	std	Y+3, r25	; 0x03
    1fe8:	8a 83       	std	Y+2, r24	; 0x02
    1fea:	e0 e0       	ldi	r30, 0x00	; 0
    1fec:	f0 e0       	ldi	r31, 0x00	; 0
    1fee:	12 96       	adiw	r26, 0x02	; 2
    1ff0:	8d 91       	ld	r24, X+
    1ff2:	9c 91       	ld	r25, X
    1ff4:	13 97       	sbiw	r26, 0x03	; 3
    1ff6:	00 97       	sbiw	r24, 0x00	; 0
    1ff8:	19 f0       	breq	.+6      	; 0x2000 <free+0xd4>
    1ffa:	fd 01       	movw	r30, r26
    1ffc:	dc 01       	movw	r26, r24
    1ffe:	f7 cf       	rjmp	.-18     	; 0x1fee <free+0xc2>
    2000:	8d 91       	ld	r24, X+
    2002:	9c 91       	ld	r25, X
    2004:	11 97       	sbiw	r26, 0x01	; 1
    2006:	9d 01       	movw	r18, r26
    2008:	2e 5f       	subi	r18, 0xFE	; 254
    200a:	3f 4f       	sbci	r19, 0xFF	; 255
    200c:	82 0f       	add	r24, r18
    200e:	93 1f       	adc	r25, r19
    2010:	20 91 d0 01 	lds	r18, 0x01D0	; 0x8001d0 <__brkval>
    2014:	30 91 d1 01 	lds	r19, 0x01D1	; 0x8001d1 <__brkval+0x1>
    2018:	28 17       	cp	r18, r24
    201a:	39 07       	cpc	r19, r25
    201c:	69 f4       	brne	.+26     	; 0x2038 <free+0x10c>
    201e:	30 97       	sbiw	r30, 0x00	; 0
    2020:	29 f4       	brne	.+10     	; 0x202c <free+0x100>
    2022:	10 92 d3 01 	sts	0x01D3, r1	; 0x8001d3 <__flp+0x1>
    2026:	10 92 d2 01 	sts	0x01D2, r1	; 0x8001d2 <__flp>
    202a:	02 c0       	rjmp	.+4      	; 0x2030 <free+0x104>
    202c:	13 82       	std	Z+3, r1	; 0x03
    202e:	12 82       	std	Z+2, r1	; 0x02
    2030:	b0 93 d1 01 	sts	0x01D1, r27	; 0x8001d1 <__brkval+0x1>
    2034:	a0 93 d0 01 	sts	0x01D0, r26	; 0x8001d0 <__brkval>
    2038:	df 91       	pop	r29
    203a:	cf 91       	pop	r28
    203c:	08 95       	ret

0000203e <snprintf>:
    203e:	ae e0       	ldi	r26, 0x0E	; 14
    2040:	b0 e0       	ldi	r27, 0x00	; 0
    2042:	e5 e2       	ldi	r30, 0x25	; 37
    2044:	f0 e1       	ldi	r31, 0x10	; 16
    2046:	0c 94 e2 15 	jmp	0x2bc4	; 0x2bc4 <__prologue_saves__+0x1c>
    204a:	0d 89       	ldd	r16, Y+21	; 0x15
    204c:	1e 89       	ldd	r17, Y+22	; 0x16
    204e:	8f 89       	ldd	r24, Y+23	; 0x17
    2050:	98 8d       	ldd	r25, Y+24	; 0x18
    2052:	26 e0       	ldi	r18, 0x06	; 6
    2054:	2c 83       	std	Y+4, r18	; 0x04
    2056:	1a 83       	std	Y+2, r17	; 0x02
    2058:	09 83       	std	Y+1, r16	; 0x01
    205a:	97 ff       	sbrs	r25, 7
    205c:	02 c0       	rjmp	.+4      	; 0x2062 <snprintf+0x24>
    205e:	80 e0       	ldi	r24, 0x00	; 0
    2060:	90 e8       	ldi	r25, 0x80	; 128
    2062:	01 97       	sbiw	r24, 0x01	; 1
    2064:	9e 83       	std	Y+6, r25	; 0x06
    2066:	8d 83       	std	Y+5, r24	; 0x05
    2068:	ae 01       	movw	r20, r28
    206a:	45 5e       	subi	r20, 0xE5	; 229
    206c:	5f 4f       	sbci	r21, 0xFF	; 255
    206e:	69 8d       	ldd	r22, Y+25	; 0x19
    2070:	7a 8d       	ldd	r23, Y+26	; 0x1a
    2072:	ce 01       	movw	r24, r28
    2074:	01 96       	adiw	r24, 0x01	; 1
    2076:	0e 94 4f 10 	call	0x209e	; 0x209e <vfprintf>
    207a:	4d 81       	ldd	r20, Y+5	; 0x05
    207c:	5e 81       	ldd	r21, Y+6	; 0x06
    207e:	57 fd       	sbrc	r21, 7
    2080:	0a c0       	rjmp	.+20     	; 0x2096 <snprintf+0x58>
    2082:	2f 81       	ldd	r18, Y+7	; 0x07
    2084:	38 85       	ldd	r19, Y+8	; 0x08
    2086:	42 17       	cp	r20, r18
    2088:	53 07       	cpc	r21, r19
    208a:	0c f4       	brge	.+2      	; 0x208e <snprintf+0x50>
    208c:	9a 01       	movw	r18, r20
    208e:	f8 01       	movw	r30, r16
    2090:	e2 0f       	add	r30, r18
    2092:	f3 1f       	adc	r31, r19
    2094:	10 82       	st	Z, r1
    2096:	2e 96       	adiw	r28, 0x0e	; 14
    2098:	e4 e0       	ldi	r30, 0x04	; 4
    209a:	0c 94 fe 15 	jmp	0x2bfc	; 0x2bfc <__epilogue_restores__+0x1c>

0000209e <vfprintf>:
    209e:	ab e0       	ldi	r26, 0x0B	; 11
    20a0:	b0 e0       	ldi	r27, 0x00	; 0
    20a2:	e5 e5       	ldi	r30, 0x55	; 85
    20a4:	f0 e1       	ldi	r31, 0x10	; 16
    20a6:	0c 94 d4 15 	jmp	0x2ba8	; 0x2ba8 <__prologue_saves__>
    20aa:	6c 01       	movw	r12, r24
    20ac:	7b 01       	movw	r14, r22
    20ae:	8a 01       	movw	r16, r20
    20b0:	fc 01       	movw	r30, r24
    20b2:	17 82       	std	Z+7, r1	; 0x07
    20b4:	16 82       	std	Z+6, r1	; 0x06
    20b6:	83 81       	ldd	r24, Z+3	; 0x03
    20b8:	81 ff       	sbrs	r24, 1
    20ba:	cc c1       	rjmp	.+920    	; 0x2454 <vfprintf+0x3b6>
    20bc:	ce 01       	movw	r24, r28
    20be:	01 96       	adiw	r24, 0x01	; 1
    20c0:	3c 01       	movw	r6, r24
    20c2:	f6 01       	movw	r30, r12
    20c4:	93 81       	ldd	r25, Z+3	; 0x03
    20c6:	f7 01       	movw	r30, r14
    20c8:	93 fd       	sbrc	r25, 3
    20ca:	85 91       	lpm	r24, Z+
    20cc:	93 ff       	sbrs	r25, 3
    20ce:	81 91       	ld	r24, Z+
    20d0:	7f 01       	movw	r14, r30
    20d2:	88 23       	and	r24, r24
    20d4:	09 f4       	brne	.+2      	; 0x20d8 <vfprintf+0x3a>
    20d6:	ba c1       	rjmp	.+884    	; 0x244c <vfprintf+0x3ae>
    20d8:	85 32       	cpi	r24, 0x25	; 37
    20da:	39 f4       	brne	.+14     	; 0x20ea <vfprintf+0x4c>
    20dc:	93 fd       	sbrc	r25, 3
    20de:	85 91       	lpm	r24, Z+
    20e0:	93 ff       	sbrs	r25, 3
    20e2:	81 91       	ld	r24, Z+
    20e4:	7f 01       	movw	r14, r30
    20e6:	85 32       	cpi	r24, 0x25	; 37
    20e8:	29 f4       	brne	.+10     	; 0x20f4 <vfprintf+0x56>
    20ea:	b6 01       	movw	r22, r12
    20ec:	90 e0       	ldi	r25, 0x00	; 0
    20ee:	0e 94 7f 14 	call	0x28fe	; 0x28fe <fputc>
    20f2:	e7 cf       	rjmp	.-50     	; 0x20c2 <vfprintf+0x24>
    20f4:	91 2c       	mov	r9, r1
    20f6:	21 2c       	mov	r2, r1
    20f8:	31 2c       	mov	r3, r1
    20fa:	ff e1       	ldi	r31, 0x1F	; 31
    20fc:	f3 15       	cp	r31, r3
    20fe:	d8 f0       	brcs	.+54     	; 0x2136 <vfprintf+0x98>
    2100:	8b 32       	cpi	r24, 0x2B	; 43
    2102:	79 f0       	breq	.+30     	; 0x2122 <vfprintf+0x84>
    2104:	38 f4       	brcc	.+14     	; 0x2114 <vfprintf+0x76>
    2106:	80 32       	cpi	r24, 0x20	; 32
    2108:	79 f0       	breq	.+30     	; 0x2128 <vfprintf+0x8a>
    210a:	83 32       	cpi	r24, 0x23	; 35
    210c:	a1 f4       	brne	.+40     	; 0x2136 <vfprintf+0x98>
    210e:	23 2d       	mov	r18, r3
    2110:	20 61       	ori	r18, 0x10	; 16
    2112:	1d c0       	rjmp	.+58     	; 0x214e <vfprintf+0xb0>
    2114:	8d 32       	cpi	r24, 0x2D	; 45
    2116:	61 f0       	breq	.+24     	; 0x2130 <vfprintf+0x92>
    2118:	80 33       	cpi	r24, 0x30	; 48
    211a:	69 f4       	brne	.+26     	; 0x2136 <vfprintf+0x98>
    211c:	23 2d       	mov	r18, r3
    211e:	21 60       	ori	r18, 0x01	; 1
    2120:	16 c0       	rjmp	.+44     	; 0x214e <vfprintf+0xb0>
    2122:	83 2d       	mov	r24, r3
    2124:	82 60       	ori	r24, 0x02	; 2
    2126:	38 2e       	mov	r3, r24
    2128:	e3 2d       	mov	r30, r3
    212a:	e4 60       	ori	r30, 0x04	; 4
    212c:	3e 2e       	mov	r3, r30
    212e:	2a c0       	rjmp	.+84     	; 0x2184 <vfprintf+0xe6>
    2130:	f3 2d       	mov	r31, r3
    2132:	f8 60       	ori	r31, 0x08	; 8
    2134:	1d c0       	rjmp	.+58     	; 0x2170 <vfprintf+0xd2>
    2136:	37 fc       	sbrc	r3, 7
    2138:	2d c0       	rjmp	.+90     	; 0x2194 <vfprintf+0xf6>
    213a:	20 ed       	ldi	r18, 0xD0	; 208
    213c:	28 0f       	add	r18, r24
    213e:	2a 30       	cpi	r18, 0x0A	; 10
    2140:	40 f0       	brcs	.+16     	; 0x2152 <vfprintf+0xb4>
    2142:	8e 32       	cpi	r24, 0x2E	; 46
    2144:	b9 f4       	brne	.+46     	; 0x2174 <vfprintf+0xd6>
    2146:	36 fc       	sbrc	r3, 6
    2148:	81 c1       	rjmp	.+770    	; 0x244c <vfprintf+0x3ae>
    214a:	23 2d       	mov	r18, r3
    214c:	20 64       	ori	r18, 0x40	; 64
    214e:	32 2e       	mov	r3, r18
    2150:	19 c0       	rjmp	.+50     	; 0x2184 <vfprintf+0xe6>
    2152:	36 fe       	sbrs	r3, 6
    2154:	06 c0       	rjmp	.+12     	; 0x2162 <vfprintf+0xc4>
    2156:	8a e0       	ldi	r24, 0x0A	; 10
    2158:	98 9e       	mul	r9, r24
    215a:	20 0d       	add	r18, r0
    215c:	11 24       	eor	r1, r1
    215e:	92 2e       	mov	r9, r18
    2160:	11 c0       	rjmp	.+34     	; 0x2184 <vfprintf+0xe6>
    2162:	ea e0       	ldi	r30, 0x0A	; 10
    2164:	2e 9e       	mul	r2, r30
    2166:	20 0d       	add	r18, r0
    2168:	11 24       	eor	r1, r1
    216a:	22 2e       	mov	r2, r18
    216c:	f3 2d       	mov	r31, r3
    216e:	f0 62       	ori	r31, 0x20	; 32
    2170:	3f 2e       	mov	r3, r31
    2172:	08 c0       	rjmp	.+16     	; 0x2184 <vfprintf+0xe6>
    2174:	8c 36       	cpi	r24, 0x6C	; 108
    2176:	21 f4       	brne	.+8      	; 0x2180 <vfprintf+0xe2>
    2178:	83 2d       	mov	r24, r3
    217a:	80 68       	ori	r24, 0x80	; 128
    217c:	38 2e       	mov	r3, r24
    217e:	02 c0       	rjmp	.+4      	; 0x2184 <vfprintf+0xe6>
    2180:	88 36       	cpi	r24, 0x68	; 104
    2182:	41 f4       	brne	.+16     	; 0x2194 <vfprintf+0xf6>
    2184:	f7 01       	movw	r30, r14
    2186:	93 fd       	sbrc	r25, 3
    2188:	85 91       	lpm	r24, Z+
    218a:	93 ff       	sbrs	r25, 3
    218c:	81 91       	ld	r24, Z+
    218e:	7f 01       	movw	r14, r30
    2190:	81 11       	cpse	r24, r1
    2192:	b3 cf       	rjmp	.-154    	; 0x20fa <vfprintf+0x5c>
    2194:	98 2f       	mov	r25, r24
    2196:	9f 7d       	andi	r25, 0xDF	; 223
    2198:	95 54       	subi	r25, 0x45	; 69
    219a:	93 30       	cpi	r25, 0x03	; 3
    219c:	28 f4       	brcc	.+10     	; 0x21a8 <vfprintf+0x10a>
    219e:	0c 5f       	subi	r16, 0xFC	; 252
    21a0:	1f 4f       	sbci	r17, 0xFF	; 255
    21a2:	9f e3       	ldi	r25, 0x3F	; 63
    21a4:	99 83       	std	Y+1, r25	; 0x01
    21a6:	0d c0       	rjmp	.+26     	; 0x21c2 <vfprintf+0x124>
    21a8:	83 36       	cpi	r24, 0x63	; 99
    21aa:	31 f0       	breq	.+12     	; 0x21b8 <vfprintf+0x11a>
    21ac:	83 37       	cpi	r24, 0x73	; 115
    21ae:	71 f0       	breq	.+28     	; 0x21cc <vfprintf+0x12e>
    21b0:	83 35       	cpi	r24, 0x53	; 83
    21b2:	09 f0       	breq	.+2      	; 0x21b6 <vfprintf+0x118>
    21b4:	59 c0       	rjmp	.+178    	; 0x2268 <vfprintf+0x1ca>
    21b6:	21 c0       	rjmp	.+66     	; 0x21fa <vfprintf+0x15c>
    21b8:	f8 01       	movw	r30, r16
    21ba:	80 81       	ld	r24, Z
    21bc:	89 83       	std	Y+1, r24	; 0x01
    21be:	0e 5f       	subi	r16, 0xFE	; 254
    21c0:	1f 4f       	sbci	r17, 0xFF	; 255
    21c2:	88 24       	eor	r8, r8
    21c4:	83 94       	inc	r8
    21c6:	91 2c       	mov	r9, r1
    21c8:	53 01       	movw	r10, r6
    21ca:	13 c0       	rjmp	.+38     	; 0x21f2 <vfprintf+0x154>
    21cc:	28 01       	movw	r4, r16
    21ce:	f2 e0       	ldi	r31, 0x02	; 2
    21d0:	4f 0e       	add	r4, r31
    21d2:	51 1c       	adc	r5, r1
    21d4:	f8 01       	movw	r30, r16
    21d6:	a0 80       	ld	r10, Z
    21d8:	b1 80       	ldd	r11, Z+1	; 0x01
    21da:	36 fe       	sbrs	r3, 6
    21dc:	03 c0       	rjmp	.+6      	; 0x21e4 <vfprintf+0x146>
    21de:	69 2d       	mov	r22, r9
    21e0:	70 e0       	ldi	r23, 0x00	; 0
    21e2:	02 c0       	rjmp	.+4      	; 0x21e8 <vfprintf+0x14a>
    21e4:	6f ef       	ldi	r22, 0xFF	; 255
    21e6:	7f ef       	ldi	r23, 0xFF	; 255
    21e8:	c5 01       	movw	r24, r10
    21ea:	0e 94 74 14 	call	0x28e8	; 0x28e8 <strnlen>
    21ee:	4c 01       	movw	r8, r24
    21f0:	82 01       	movw	r16, r4
    21f2:	f3 2d       	mov	r31, r3
    21f4:	ff 77       	andi	r31, 0x7F	; 127
    21f6:	3f 2e       	mov	r3, r31
    21f8:	16 c0       	rjmp	.+44     	; 0x2226 <vfprintf+0x188>
    21fa:	28 01       	movw	r4, r16
    21fc:	22 e0       	ldi	r18, 0x02	; 2
    21fe:	42 0e       	add	r4, r18
    2200:	51 1c       	adc	r5, r1
    2202:	f8 01       	movw	r30, r16
    2204:	a0 80       	ld	r10, Z
    2206:	b1 80       	ldd	r11, Z+1	; 0x01
    2208:	36 fe       	sbrs	r3, 6
    220a:	03 c0       	rjmp	.+6      	; 0x2212 <vfprintf+0x174>
    220c:	69 2d       	mov	r22, r9
    220e:	70 e0       	ldi	r23, 0x00	; 0
    2210:	02 c0       	rjmp	.+4      	; 0x2216 <vfprintf+0x178>
    2212:	6f ef       	ldi	r22, 0xFF	; 255
    2214:	7f ef       	ldi	r23, 0xFF	; 255
    2216:	c5 01       	movw	r24, r10
    2218:	0e 94 62 14 	call	0x28c4	; 0x28c4 <strnlen_P>
    221c:	4c 01       	movw	r8, r24
    221e:	f3 2d       	mov	r31, r3
    2220:	f0 68       	ori	r31, 0x80	; 128
    2222:	3f 2e       	mov	r3, r31
    2224:	82 01       	movw	r16, r4
    2226:	33 fc       	sbrc	r3, 3
    2228:	1b c0       	rjmp	.+54     	; 0x2260 <vfprintf+0x1c2>
    222a:	82 2d       	mov	r24, r2
    222c:	90 e0       	ldi	r25, 0x00	; 0
    222e:	88 16       	cp	r8, r24
    2230:	99 06       	cpc	r9, r25
    2232:	b0 f4       	brcc	.+44     	; 0x2260 <vfprintf+0x1c2>
    2234:	b6 01       	movw	r22, r12
    2236:	80 e2       	ldi	r24, 0x20	; 32
    2238:	90 e0       	ldi	r25, 0x00	; 0
    223a:	0e 94 7f 14 	call	0x28fe	; 0x28fe <fputc>
    223e:	2a 94       	dec	r2
    2240:	f4 cf       	rjmp	.-24     	; 0x222a <vfprintf+0x18c>
    2242:	f5 01       	movw	r30, r10
    2244:	37 fc       	sbrc	r3, 7
    2246:	85 91       	lpm	r24, Z+
    2248:	37 fe       	sbrs	r3, 7
    224a:	81 91       	ld	r24, Z+
    224c:	5f 01       	movw	r10, r30
    224e:	b6 01       	movw	r22, r12
    2250:	90 e0       	ldi	r25, 0x00	; 0
    2252:	0e 94 7f 14 	call	0x28fe	; 0x28fe <fputc>
    2256:	21 10       	cpse	r2, r1
    2258:	2a 94       	dec	r2
    225a:	21 e0       	ldi	r18, 0x01	; 1
    225c:	82 1a       	sub	r8, r18
    225e:	91 08       	sbc	r9, r1
    2260:	81 14       	cp	r8, r1
    2262:	91 04       	cpc	r9, r1
    2264:	71 f7       	brne	.-36     	; 0x2242 <vfprintf+0x1a4>
    2266:	e8 c0       	rjmp	.+464    	; 0x2438 <vfprintf+0x39a>
    2268:	84 36       	cpi	r24, 0x64	; 100
    226a:	11 f0       	breq	.+4      	; 0x2270 <vfprintf+0x1d2>
    226c:	89 36       	cpi	r24, 0x69	; 105
    226e:	41 f5       	brne	.+80     	; 0x22c0 <vfprintf+0x222>
    2270:	f8 01       	movw	r30, r16
    2272:	37 fe       	sbrs	r3, 7
    2274:	07 c0       	rjmp	.+14     	; 0x2284 <vfprintf+0x1e6>
    2276:	60 81       	ld	r22, Z
    2278:	71 81       	ldd	r23, Z+1	; 0x01
    227a:	82 81       	ldd	r24, Z+2	; 0x02
    227c:	93 81       	ldd	r25, Z+3	; 0x03
    227e:	0c 5f       	subi	r16, 0xFC	; 252
    2280:	1f 4f       	sbci	r17, 0xFF	; 255
    2282:	08 c0       	rjmp	.+16     	; 0x2294 <vfprintf+0x1f6>
    2284:	60 81       	ld	r22, Z
    2286:	71 81       	ldd	r23, Z+1	; 0x01
    2288:	07 2e       	mov	r0, r23
    228a:	00 0c       	add	r0, r0
    228c:	88 0b       	sbc	r24, r24
    228e:	99 0b       	sbc	r25, r25
    2290:	0e 5f       	subi	r16, 0xFE	; 254
    2292:	1f 4f       	sbci	r17, 0xFF	; 255
    2294:	f3 2d       	mov	r31, r3
    2296:	ff 76       	andi	r31, 0x6F	; 111
    2298:	3f 2e       	mov	r3, r31
    229a:	97 ff       	sbrs	r25, 7
    229c:	09 c0       	rjmp	.+18     	; 0x22b0 <vfprintf+0x212>
    229e:	90 95       	com	r25
    22a0:	80 95       	com	r24
    22a2:	70 95       	com	r23
    22a4:	61 95       	neg	r22
    22a6:	7f 4f       	sbci	r23, 0xFF	; 255
    22a8:	8f 4f       	sbci	r24, 0xFF	; 255
    22aa:	9f 4f       	sbci	r25, 0xFF	; 255
    22ac:	f0 68       	ori	r31, 0x80	; 128
    22ae:	3f 2e       	mov	r3, r31
    22b0:	2a e0       	ldi	r18, 0x0A	; 10
    22b2:	30 e0       	ldi	r19, 0x00	; 0
    22b4:	a3 01       	movw	r20, r6
    22b6:	0e 94 dd 14 	call	0x29ba	; 0x29ba <__ultoa_invert>
    22ba:	88 2e       	mov	r8, r24
    22bc:	86 18       	sub	r8, r6
    22be:	45 c0       	rjmp	.+138    	; 0x234a <vfprintf+0x2ac>
    22c0:	85 37       	cpi	r24, 0x75	; 117
    22c2:	31 f4       	brne	.+12     	; 0x22d0 <vfprintf+0x232>
    22c4:	23 2d       	mov	r18, r3
    22c6:	2f 7e       	andi	r18, 0xEF	; 239
    22c8:	b2 2e       	mov	r11, r18
    22ca:	2a e0       	ldi	r18, 0x0A	; 10
    22cc:	30 e0       	ldi	r19, 0x00	; 0
    22ce:	25 c0       	rjmp	.+74     	; 0x231a <vfprintf+0x27c>
    22d0:	93 2d       	mov	r25, r3
    22d2:	99 7f       	andi	r25, 0xF9	; 249
    22d4:	b9 2e       	mov	r11, r25
    22d6:	8f 36       	cpi	r24, 0x6F	; 111
    22d8:	c1 f0       	breq	.+48     	; 0x230a <vfprintf+0x26c>
    22da:	18 f4       	brcc	.+6      	; 0x22e2 <vfprintf+0x244>
    22dc:	88 35       	cpi	r24, 0x58	; 88
    22de:	79 f0       	breq	.+30     	; 0x22fe <vfprintf+0x260>
    22e0:	b5 c0       	rjmp	.+362    	; 0x244c <vfprintf+0x3ae>
    22e2:	80 37       	cpi	r24, 0x70	; 112
    22e4:	19 f0       	breq	.+6      	; 0x22ec <vfprintf+0x24e>
    22e6:	88 37       	cpi	r24, 0x78	; 120
    22e8:	21 f0       	breq	.+8      	; 0x22f2 <vfprintf+0x254>
    22ea:	b0 c0       	rjmp	.+352    	; 0x244c <vfprintf+0x3ae>
    22ec:	e9 2f       	mov	r30, r25
    22ee:	e0 61       	ori	r30, 0x10	; 16
    22f0:	be 2e       	mov	r11, r30
    22f2:	b4 fe       	sbrs	r11, 4
    22f4:	0d c0       	rjmp	.+26     	; 0x2310 <vfprintf+0x272>
    22f6:	fb 2d       	mov	r31, r11
    22f8:	f4 60       	ori	r31, 0x04	; 4
    22fa:	bf 2e       	mov	r11, r31
    22fc:	09 c0       	rjmp	.+18     	; 0x2310 <vfprintf+0x272>
    22fe:	34 fe       	sbrs	r3, 4
    2300:	0a c0       	rjmp	.+20     	; 0x2316 <vfprintf+0x278>
    2302:	29 2f       	mov	r18, r25
    2304:	26 60       	ori	r18, 0x06	; 6
    2306:	b2 2e       	mov	r11, r18
    2308:	06 c0       	rjmp	.+12     	; 0x2316 <vfprintf+0x278>
    230a:	28 e0       	ldi	r18, 0x08	; 8
    230c:	30 e0       	ldi	r19, 0x00	; 0
    230e:	05 c0       	rjmp	.+10     	; 0x231a <vfprintf+0x27c>
    2310:	20 e1       	ldi	r18, 0x10	; 16
    2312:	30 e0       	ldi	r19, 0x00	; 0
    2314:	02 c0       	rjmp	.+4      	; 0x231a <vfprintf+0x27c>
    2316:	20 e1       	ldi	r18, 0x10	; 16
    2318:	32 e0       	ldi	r19, 0x02	; 2
    231a:	f8 01       	movw	r30, r16
    231c:	b7 fe       	sbrs	r11, 7
    231e:	07 c0       	rjmp	.+14     	; 0x232e <vfprintf+0x290>
    2320:	60 81       	ld	r22, Z
    2322:	71 81       	ldd	r23, Z+1	; 0x01
    2324:	82 81       	ldd	r24, Z+2	; 0x02
    2326:	93 81       	ldd	r25, Z+3	; 0x03
    2328:	0c 5f       	subi	r16, 0xFC	; 252
    232a:	1f 4f       	sbci	r17, 0xFF	; 255
    232c:	06 c0       	rjmp	.+12     	; 0x233a <vfprintf+0x29c>
    232e:	60 81       	ld	r22, Z
    2330:	71 81       	ldd	r23, Z+1	; 0x01
    2332:	80 e0       	ldi	r24, 0x00	; 0
    2334:	90 e0       	ldi	r25, 0x00	; 0
    2336:	0e 5f       	subi	r16, 0xFE	; 254
    2338:	1f 4f       	sbci	r17, 0xFF	; 255
    233a:	a3 01       	movw	r20, r6
    233c:	0e 94 dd 14 	call	0x29ba	; 0x29ba <__ultoa_invert>
    2340:	88 2e       	mov	r8, r24
    2342:	86 18       	sub	r8, r6
    2344:	fb 2d       	mov	r31, r11
    2346:	ff 77       	andi	r31, 0x7F	; 127
    2348:	3f 2e       	mov	r3, r31
    234a:	36 fe       	sbrs	r3, 6
    234c:	0d c0       	rjmp	.+26     	; 0x2368 <vfprintf+0x2ca>
    234e:	23 2d       	mov	r18, r3
    2350:	2e 7f       	andi	r18, 0xFE	; 254
    2352:	a2 2e       	mov	r10, r18
    2354:	89 14       	cp	r8, r9
    2356:	58 f4       	brcc	.+22     	; 0x236e <vfprintf+0x2d0>
    2358:	34 fe       	sbrs	r3, 4
    235a:	0b c0       	rjmp	.+22     	; 0x2372 <vfprintf+0x2d4>
    235c:	32 fc       	sbrc	r3, 2
    235e:	09 c0       	rjmp	.+18     	; 0x2372 <vfprintf+0x2d4>
    2360:	83 2d       	mov	r24, r3
    2362:	8e 7e       	andi	r24, 0xEE	; 238
    2364:	a8 2e       	mov	r10, r24
    2366:	05 c0       	rjmp	.+10     	; 0x2372 <vfprintf+0x2d4>
    2368:	b8 2c       	mov	r11, r8
    236a:	a3 2c       	mov	r10, r3
    236c:	03 c0       	rjmp	.+6      	; 0x2374 <vfprintf+0x2d6>
    236e:	b8 2c       	mov	r11, r8
    2370:	01 c0       	rjmp	.+2      	; 0x2374 <vfprintf+0x2d6>
    2372:	b9 2c       	mov	r11, r9
    2374:	a4 fe       	sbrs	r10, 4
    2376:	0f c0       	rjmp	.+30     	; 0x2396 <vfprintf+0x2f8>
    2378:	fe 01       	movw	r30, r28
    237a:	e8 0d       	add	r30, r8
    237c:	f1 1d       	adc	r31, r1
    237e:	80 81       	ld	r24, Z
    2380:	80 33       	cpi	r24, 0x30	; 48
    2382:	21 f4       	brne	.+8      	; 0x238c <vfprintf+0x2ee>
    2384:	9a 2d       	mov	r25, r10
    2386:	99 7e       	andi	r25, 0xE9	; 233
    2388:	a9 2e       	mov	r10, r25
    238a:	09 c0       	rjmp	.+18     	; 0x239e <vfprintf+0x300>
    238c:	a2 fe       	sbrs	r10, 2
    238e:	06 c0       	rjmp	.+12     	; 0x239c <vfprintf+0x2fe>
    2390:	b3 94       	inc	r11
    2392:	b3 94       	inc	r11
    2394:	04 c0       	rjmp	.+8      	; 0x239e <vfprintf+0x300>
    2396:	8a 2d       	mov	r24, r10
    2398:	86 78       	andi	r24, 0x86	; 134
    239a:	09 f0       	breq	.+2      	; 0x239e <vfprintf+0x300>
    239c:	b3 94       	inc	r11
    239e:	a3 fc       	sbrc	r10, 3
    23a0:	11 c0       	rjmp	.+34     	; 0x23c4 <vfprintf+0x326>
    23a2:	a0 fe       	sbrs	r10, 0
    23a4:	06 c0       	rjmp	.+12     	; 0x23b2 <vfprintf+0x314>
    23a6:	b2 14       	cp	r11, r2
    23a8:	88 f4       	brcc	.+34     	; 0x23cc <vfprintf+0x32e>
    23aa:	28 0c       	add	r2, r8
    23ac:	92 2c       	mov	r9, r2
    23ae:	9b 18       	sub	r9, r11
    23b0:	0e c0       	rjmp	.+28     	; 0x23ce <vfprintf+0x330>
    23b2:	b2 14       	cp	r11, r2
    23b4:	60 f4       	brcc	.+24     	; 0x23ce <vfprintf+0x330>
    23b6:	b6 01       	movw	r22, r12
    23b8:	80 e2       	ldi	r24, 0x20	; 32
    23ba:	90 e0       	ldi	r25, 0x00	; 0
    23bc:	0e 94 7f 14 	call	0x28fe	; 0x28fe <fputc>
    23c0:	b3 94       	inc	r11
    23c2:	f7 cf       	rjmp	.-18     	; 0x23b2 <vfprintf+0x314>
    23c4:	b2 14       	cp	r11, r2
    23c6:	18 f4       	brcc	.+6      	; 0x23ce <vfprintf+0x330>
    23c8:	2b 18       	sub	r2, r11
    23ca:	02 c0       	rjmp	.+4      	; 0x23d0 <vfprintf+0x332>
    23cc:	98 2c       	mov	r9, r8
    23ce:	21 2c       	mov	r2, r1
    23d0:	a4 fe       	sbrs	r10, 4
    23d2:	10 c0       	rjmp	.+32     	; 0x23f4 <vfprintf+0x356>
    23d4:	b6 01       	movw	r22, r12
    23d6:	80 e3       	ldi	r24, 0x30	; 48
    23d8:	90 e0       	ldi	r25, 0x00	; 0
    23da:	0e 94 7f 14 	call	0x28fe	; 0x28fe <fputc>
    23de:	a2 fe       	sbrs	r10, 2
    23e0:	17 c0       	rjmp	.+46     	; 0x2410 <vfprintf+0x372>
    23e2:	a1 fc       	sbrc	r10, 1
    23e4:	03 c0       	rjmp	.+6      	; 0x23ec <vfprintf+0x34e>
    23e6:	88 e7       	ldi	r24, 0x78	; 120
    23e8:	90 e0       	ldi	r25, 0x00	; 0
    23ea:	02 c0       	rjmp	.+4      	; 0x23f0 <vfprintf+0x352>
    23ec:	88 e5       	ldi	r24, 0x58	; 88
    23ee:	90 e0       	ldi	r25, 0x00	; 0
    23f0:	b6 01       	movw	r22, r12
    23f2:	0c c0       	rjmp	.+24     	; 0x240c <vfprintf+0x36e>
    23f4:	8a 2d       	mov	r24, r10
    23f6:	86 78       	andi	r24, 0x86	; 134
    23f8:	59 f0       	breq	.+22     	; 0x2410 <vfprintf+0x372>
    23fa:	a1 fe       	sbrs	r10, 1
    23fc:	02 c0       	rjmp	.+4      	; 0x2402 <vfprintf+0x364>
    23fe:	8b e2       	ldi	r24, 0x2B	; 43
    2400:	01 c0       	rjmp	.+2      	; 0x2404 <vfprintf+0x366>
    2402:	80 e2       	ldi	r24, 0x20	; 32
    2404:	a7 fc       	sbrc	r10, 7
    2406:	8d e2       	ldi	r24, 0x2D	; 45
    2408:	b6 01       	movw	r22, r12
    240a:	90 e0       	ldi	r25, 0x00	; 0
    240c:	0e 94 7f 14 	call	0x28fe	; 0x28fe <fputc>
    2410:	89 14       	cp	r8, r9
    2412:	38 f4       	brcc	.+14     	; 0x2422 <vfprintf+0x384>
    2414:	b6 01       	movw	r22, r12
    2416:	80 e3       	ldi	r24, 0x30	; 48
    2418:	90 e0       	ldi	r25, 0x00	; 0
    241a:	0e 94 7f 14 	call	0x28fe	; 0x28fe <fputc>
    241e:	9a 94       	dec	r9
    2420:	f7 cf       	rjmp	.-18     	; 0x2410 <vfprintf+0x372>
    2422:	8a 94       	dec	r8
    2424:	f3 01       	movw	r30, r6
    2426:	e8 0d       	add	r30, r8
    2428:	f1 1d       	adc	r31, r1
    242a:	80 81       	ld	r24, Z
    242c:	b6 01       	movw	r22, r12
    242e:	90 e0       	ldi	r25, 0x00	; 0
    2430:	0e 94 7f 14 	call	0x28fe	; 0x28fe <fputc>
    2434:	81 10       	cpse	r8, r1
    2436:	f5 cf       	rjmp	.-22     	; 0x2422 <vfprintf+0x384>
    2438:	22 20       	and	r2, r2
    243a:	09 f4       	brne	.+2      	; 0x243e <vfprintf+0x3a0>
    243c:	42 ce       	rjmp	.-892    	; 0x20c2 <vfprintf+0x24>
    243e:	b6 01       	movw	r22, r12
    2440:	80 e2       	ldi	r24, 0x20	; 32
    2442:	90 e0       	ldi	r25, 0x00	; 0
    2444:	0e 94 7f 14 	call	0x28fe	; 0x28fe <fputc>
    2448:	2a 94       	dec	r2
    244a:	f6 cf       	rjmp	.-20     	; 0x2438 <vfprintf+0x39a>
    244c:	f6 01       	movw	r30, r12
    244e:	86 81       	ldd	r24, Z+6	; 0x06
    2450:	97 81       	ldd	r25, Z+7	; 0x07
    2452:	02 c0       	rjmp	.+4      	; 0x2458 <vfprintf+0x3ba>
    2454:	8f ef       	ldi	r24, 0xFF	; 255
    2456:	9f ef       	ldi	r25, 0xFF	; 255
    2458:	2b 96       	adiw	r28, 0x0b	; 11
    245a:	e2 e1       	ldi	r30, 0x12	; 18
    245c:	0c 94 f0 15 	jmp	0x2be0	; 0x2be0 <__epilogue_restores__>

00002460 <dtoa_prf>:
    2460:	a9 e0       	ldi	r26, 0x09	; 9
    2462:	b0 e0       	ldi	r27, 0x00	; 0
    2464:	e6 e3       	ldi	r30, 0x36	; 54
    2466:	f2 e1       	ldi	r31, 0x12	; 18
    2468:	0c 94 da 15 	jmp	0x2bb4	; 0x2bb4 <__prologue_saves__+0xc>
    246c:	6a 01       	movw	r12, r20
    246e:	12 2f       	mov	r17, r18
    2470:	b0 2e       	mov	r11, r16
    2472:	2b e3       	ldi	r18, 0x3B	; 59
    2474:	20 17       	cp	r18, r16
    2476:	20 f0       	brcs	.+8      	; 0x2480 <dtoa_prf+0x20>
    2478:	ff 24       	eor	r15, r15
    247a:	f3 94       	inc	r15
    247c:	f0 0e       	add	r15, r16
    247e:	02 c0       	rjmp	.+4      	; 0x2484 <dtoa_prf+0x24>
    2480:	2c e3       	ldi	r18, 0x3C	; 60
    2482:	f2 2e       	mov	r15, r18
    2484:	0f 2d       	mov	r16, r15
    2486:	27 e0       	ldi	r18, 0x07	; 7
    2488:	ae 01       	movw	r20, r28
    248a:	4f 5f       	subi	r20, 0xFF	; 255
    248c:	5f 4f       	sbci	r21, 0xFF	; 255
    248e:	0e 94 8a 13 	call	0x2714	; 0x2714 <__ftoa_engine>
    2492:	bc 01       	movw	r22, r24
    2494:	49 81       	ldd	r20, Y+1	; 0x01
    2496:	84 2f       	mov	r24, r20
    2498:	89 70       	andi	r24, 0x09	; 9
    249a:	81 30       	cpi	r24, 0x01	; 1
    249c:	31 f0       	breq	.+12     	; 0x24aa <dtoa_prf+0x4a>
    249e:	e1 fc       	sbrc	r14, 1
    24a0:	06 c0       	rjmp	.+12     	; 0x24ae <dtoa_prf+0x4e>
    24a2:	e0 fe       	sbrs	r14, 0
    24a4:	06 c0       	rjmp	.+12     	; 0x24b2 <dtoa_prf+0x52>
    24a6:	90 e2       	ldi	r25, 0x20	; 32
    24a8:	05 c0       	rjmp	.+10     	; 0x24b4 <dtoa_prf+0x54>
    24aa:	9d e2       	ldi	r25, 0x2D	; 45
    24ac:	03 c0       	rjmp	.+6      	; 0x24b4 <dtoa_prf+0x54>
    24ae:	9b e2       	ldi	r25, 0x2B	; 43
    24b0:	01 c0       	rjmp	.+2      	; 0x24b4 <dtoa_prf+0x54>
    24b2:	90 e0       	ldi	r25, 0x00	; 0
    24b4:	5e 2d       	mov	r21, r14
    24b6:	50 71       	andi	r21, 0x10	; 16
    24b8:	43 ff       	sbrs	r20, 3
    24ba:	3c c0       	rjmp	.+120    	; 0x2534 <dtoa_prf+0xd4>
    24bc:	91 11       	cpse	r25, r1
    24be:	02 c0       	rjmp	.+4      	; 0x24c4 <dtoa_prf+0x64>
    24c0:	83 e0       	ldi	r24, 0x03	; 3
    24c2:	01 c0       	rjmp	.+2      	; 0x24c6 <dtoa_prf+0x66>
    24c4:	84 e0       	ldi	r24, 0x04	; 4
    24c6:	81 17       	cp	r24, r17
    24c8:	18 f4       	brcc	.+6      	; 0x24d0 <dtoa_prf+0x70>
    24ca:	21 2f       	mov	r18, r17
    24cc:	28 1b       	sub	r18, r24
    24ce:	01 c0       	rjmp	.+2      	; 0x24d2 <dtoa_prf+0x72>
    24d0:	20 e0       	ldi	r18, 0x00	; 0
    24d2:	51 11       	cpse	r21, r1
    24d4:	0b c0       	rjmp	.+22     	; 0x24ec <dtoa_prf+0x8c>
    24d6:	f6 01       	movw	r30, r12
    24d8:	82 2f       	mov	r24, r18
    24da:	30 e2       	ldi	r19, 0x20	; 32
    24dc:	88 23       	and	r24, r24
    24de:	19 f0       	breq	.+6      	; 0x24e6 <dtoa_prf+0x86>
    24e0:	31 93       	st	Z+, r19
    24e2:	81 50       	subi	r24, 0x01	; 1
    24e4:	fb cf       	rjmp	.-10     	; 0x24dc <dtoa_prf+0x7c>
    24e6:	c2 0e       	add	r12, r18
    24e8:	d1 1c       	adc	r13, r1
    24ea:	20 e0       	ldi	r18, 0x00	; 0
    24ec:	99 23       	and	r25, r25
    24ee:	29 f0       	breq	.+10     	; 0x24fa <dtoa_prf+0x9a>
    24f0:	d6 01       	movw	r26, r12
    24f2:	9c 93       	st	X, r25
    24f4:	f6 01       	movw	r30, r12
    24f6:	31 96       	adiw	r30, 0x01	; 1
    24f8:	6f 01       	movw	r12, r30
    24fa:	c6 01       	movw	r24, r12
    24fc:	03 96       	adiw	r24, 0x03	; 3
    24fe:	e2 fe       	sbrs	r14, 2
    2500:	0a c0       	rjmp	.+20     	; 0x2516 <dtoa_prf+0xb6>
    2502:	3e e4       	ldi	r19, 0x4E	; 78
    2504:	d6 01       	movw	r26, r12
    2506:	3c 93       	st	X, r19
    2508:	41 e4       	ldi	r20, 0x41	; 65
    250a:	11 96       	adiw	r26, 0x01	; 1
    250c:	4c 93       	st	X, r20
    250e:	11 97       	sbiw	r26, 0x01	; 1
    2510:	12 96       	adiw	r26, 0x02	; 2
    2512:	3c 93       	st	X, r19
    2514:	06 c0       	rjmp	.+12     	; 0x2522 <dtoa_prf+0xc2>
    2516:	3e e6       	ldi	r19, 0x6E	; 110
    2518:	f6 01       	movw	r30, r12
    251a:	30 83       	st	Z, r19
    251c:	41 e6       	ldi	r20, 0x61	; 97
    251e:	41 83       	std	Z+1, r20	; 0x01
    2520:	32 83       	std	Z+2, r19	; 0x02
    2522:	fc 01       	movw	r30, r24
    2524:	32 2f       	mov	r19, r18
    2526:	40 e2       	ldi	r20, 0x20	; 32
    2528:	33 23       	and	r19, r19
    252a:	09 f4       	brne	.+2      	; 0x252e <dtoa_prf+0xce>
    252c:	42 c0       	rjmp	.+132    	; 0x25b2 <dtoa_prf+0x152>
    252e:	41 93       	st	Z+, r20
    2530:	31 50       	subi	r19, 0x01	; 1
    2532:	fa cf       	rjmp	.-12     	; 0x2528 <dtoa_prf+0xc8>
    2534:	42 ff       	sbrs	r20, 2
    2536:	44 c0       	rjmp	.+136    	; 0x25c0 <dtoa_prf+0x160>
    2538:	91 11       	cpse	r25, r1
    253a:	02 c0       	rjmp	.+4      	; 0x2540 <dtoa_prf+0xe0>
    253c:	83 e0       	ldi	r24, 0x03	; 3
    253e:	01 c0       	rjmp	.+2      	; 0x2542 <dtoa_prf+0xe2>
    2540:	84 e0       	ldi	r24, 0x04	; 4
    2542:	81 17       	cp	r24, r17
    2544:	18 f4       	brcc	.+6      	; 0x254c <dtoa_prf+0xec>
    2546:	21 2f       	mov	r18, r17
    2548:	28 1b       	sub	r18, r24
    254a:	01 c0       	rjmp	.+2      	; 0x254e <dtoa_prf+0xee>
    254c:	20 e0       	ldi	r18, 0x00	; 0
    254e:	51 11       	cpse	r21, r1
    2550:	0b c0       	rjmp	.+22     	; 0x2568 <dtoa_prf+0x108>
    2552:	f6 01       	movw	r30, r12
    2554:	82 2f       	mov	r24, r18
    2556:	30 e2       	ldi	r19, 0x20	; 32
    2558:	88 23       	and	r24, r24
    255a:	19 f0       	breq	.+6      	; 0x2562 <dtoa_prf+0x102>
    255c:	31 93       	st	Z+, r19
    255e:	81 50       	subi	r24, 0x01	; 1
    2560:	fb cf       	rjmp	.-10     	; 0x2558 <dtoa_prf+0xf8>
    2562:	c2 0e       	add	r12, r18
    2564:	d1 1c       	adc	r13, r1
    2566:	20 e0       	ldi	r18, 0x00	; 0
    2568:	99 23       	and	r25, r25
    256a:	29 f0       	breq	.+10     	; 0x2576 <dtoa_prf+0x116>
    256c:	d6 01       	movw	r26, r12
    256e:	9c 93       	st	X, r25
    2570:	f6 01       	movw	r30, r12
    2572:	31 96       	adiw	r30, 0x01	; 1
    2574:	6f 01       	movw	r12, r30
    2576:	c6 01       	movw	r24, r12
    2578:	03 96       	adiw	r24, 0x03	; 3
    257a:	e2 fe       	sbrs	r14, 2
    257c:	0b c0       	rjmp	.+22     	; 0x2594 <dtoa_prf+0x134>
    257e:	39 e4       	ldi	r19, 0x49	; 73
    2580:	d6 01       	movw	r26, r12
    2582:	3c 93       	st	X, r19
    2584:	3e e4       	ldi	r19, 0x4E	; 78
    2586:	11 96       	adiw	r26, 0x01	; 1
    2588:	3c 93       	st	X, r19
    258a:	11 97       	sbiw	r26, 0x01	; 1
    258c:	36 e4       	ldi	r19, 0x46	; 70
    258e:	12 96       	adiw	r26, 0x02	; 2
    2590:	3c 93       	st	X, r19
    2592:	07 c0       	rjmp	.+14     	; 0x25a2 <dtoa_prf+0x142>
    2594:	39 e6       	ldi	r19, 0x69	; 105
    2596:	f6 01       	movw	r30, r12
    2598:	30 83       	st	Z, r19
    259a:	3e e6       	ldi	r19, 0x6E	; 110
    259c:	31 83       	std	Z+1, r19	; 0x01
    259e:	36 e6       	ldi	r19, 0x66	; 102
    25a0:	32 83       	std	Z+2, r19	; 0x02
    25a2:	fc 01       	movw	r30, r24
    25a4:	32 2f       	mov	r19, r18
    25a6:	40 e2       	ldi	r20, 0x20	; 32
    25a8:	33 23       	and	r19, r19
    25aa:	19 f0       	breq	.+6      	; 0x25b2 <dtoa_prf+0x152>
    25ac:	41 93       	st	Z+, r20
    25ae:	31 50       	subi	r19, 0x01	; 1
    25b0:	fb cf       	rjmp	.-10     	; 0x25a8 <dtoa_prf+0x148>
    25b2:	fc 01       	movw	r30, r24
    25b4:	e2 0f       	add	r30, r18
    25b6:	f1 1d       	adc	r31, r1
    25b8:	10 82       	st	Z, r1
    25ba:	8e ef       	ldi	r24, 0xFE	; 254
    25bc:	9f ef       	ldi	r25, 0xFF	; 255
    25be:	a6 c0       	rjmp	.+332    	; 0x270c <dtoa_prf+0x2ac>
    25c0:	21 e0       	ldi	r18, 0x01	; 1
    25c2:	30 e0       	ldi	r19, 0x00	; 0
    25c4:	91 11       	cpse	r25, r1
    25c6:	02 c0       	rjmp	.+4      	; 0x25cc <dtoa_prf+0x16c>
    25c8:	20 e0       	ldi	r18, 0x00	; 0
    25ca:	30 e0       	ldi	r19, 0x00	; 0
    25cc:	16 16       	cp	r1, r22
    25ce:	17 06       	cpc	r1, r23
    25d0:	1c f4       	brge	.+6      	; 0x25d8 <dtoa_prf+0x178>
    25d2:	fb 01       	movw	r30, r22
    25d4:	31 96       	adiw	r30, 0x01	; 1
    25d6:	02 c0       	rjmp	.+4      	; 0x25dc <dtoa_prf+0x17c>
    25d8:	e1 e0       	ldi	r30, 0x01	; 1
    25da:	f0 e0       	ldi	r31, 0x00	; 0
    25dc:	2e 0f       	add	r18, r30
    25de:	3f 1f       	adc	r19, r31
    25e0:	bb 20       	and	r11, r11
    25e2:	21 f0       	breq	.+8      	; 0x25ec <dtoa_prf+0x18c>
    25e4:	eb 2d       	mov	r30, r11
    25e6:	f0 e0       	ldi	r31, 0x00	; 0
    25e8:	31 96       	adiw	r30, 0x01	; 1
    25ea:	02 c0       	rjmp	.+4      	; 0x25f0 <dtoa_prf+0x190>
    25ec:	e0 e0       	ldi	r30, 0x00	; 0
    25ee:	f0 e0       	ldi	r31, 0x00	; 0
    25f0:	2e 0f       	add	r18, r30
    25f2:	3f 1f       	adc	r19, r31
    25f4:	e1 2f       	mov	r30, r17
    25f6:	f0 e0       	ldi	r31, 0x00	; 0
    25f8:	2e 17       	cp	r18, r30
    25fa:	3f 07       	cpc	r19, r31
    25fc:	1c f4       	brge	.+6      	; 0x2604 <dtoa_prf+0x1a4>
    25fe:	12 1b       	sub	r17, r18
    2600:	21 2f       	mov	r18, r17
    2602:	01 c0       	rjmp	.+2      	; 0x2606 <dtoa_prf+0x1a6>
    2604:	20 e0       	ldi	r18, 0x00	; 0
    2606:	8e 2d       	mov	r24, r14
    2608:	88 71       	andi	r24, 0x18	; 24
    260a:	59 f4       	brne	.+22     	; 0x2622 <dtoa_prf+0x1c2>
    260c:	f6 01       	movw	r30, r12
    260e:	82 2f       	mov	r24, r18
    2610:	30 e2       	ldi	r19, 0x20	; 32
    2612:	88 23       	and	r24, r24
    2614:	19 f0       	breq	.+6      	; 0x261c <dtoa_prf+0x1bc>
    2616:	31 93       	st	Z+, r19
    2618:	81 50       	subi	r24, 0x01	; 1
    261a:	fb cf       	rjmp	.-10     	; 0x2612 <dtoa_prf+0x1b2>
    261c:	c2 0e       	add	r12, r18
    261e:	d1 1c       	adc	r13, r1
    2620:	20 e0       	ldi	r18, 0x00	; 0
    2622:	99 23       	and	r25, r25
    2624:	29 f0       	breq	.+10     	; 0x2630 <dtoa_prf+0x1d0>
    2626:	d6 01       	movw	r26, r12
    2628:	9c 93       	st	X, r25
    262a:	f6 01       	movw	r30, r12
    262c:	31 96       	adiw	r30, 0x01	; 1
    262e:	6f 01       	movw	r12, r30
    2630:	51 11       	cpse	r21, r1
    2632:	0b c0       	rjmp	.+22     	; 0x264a <dtoa_prf+0x1ea>
    2634:	f6 01       	movw	r30, r12
    2636:	82 2f       	mov	r24, r18
    2638:	90 e3       	ldi	r25, 0x30	; 48
    263a:	88 23       	and	r24, r24
    263c:	19 f0       	breq	.+6      	; 0x2644 <dtoa_prf+0x1e4>
    263e:	91 93       	st	Z+, r25
    2640:	81 50       	subi	r24, 0x01	; 1
    2642:	fb cf       	rjmp	.-10     	; 0x263a <dtoa_prf+0x1da>
    2644:	c2 0e       	add	r12, r18
    2646:	d1 1c       	adc	r13, r1
    2648:	20 e0       	ldi	r18, 0x00	; 0
    264a:	0f 2d       	mov	r16, r15
    264c:	06 0f       	add	r16, r22
    264e:	9a 81       	ldd	r25, Y+2	; 0x02
    2650:	34 2f       	mov	r19, r20
    2652:	30 71       	andi	r19, 0x10	; 16
    2654:	44 ff       	sbrs	r20, 4
    2656:	03 c0       	rjmp	.+6      	; 0x265e <dtoa_prf+0x1fe>
    2658:	91 33       	cpi	r25, 0x31	; 49
    265a:	09 f4       	brne	.+2      	; 0x265e <dtoa_prf+0x1fe>
    265c:	01 50       	subi	r16, 0x01	; 1
    265e:	10 16       	cp	r1, r16
    2660:	24 f4       	brge	.+8      	; 0x266a <dtoa_prf+0x20a>
    2662:	09 30       	cpi	r16, 0x09	; 9
    2664:	18 f0       	brcs	.+6      	; 0x266c <dtoa_prf+0x20c>
    2666:	08 e0       	ldi	r16, 0x08	; 8
    2668:	01 c0       	rjmp	.+2      	; 0x266c <dtoa_prf+0x20c>
    266a:	01 e0       	ldi	r16, 0x01	; 1
    266c:	ab 01       	movw	r20, r22
    266e:	77 ff       	sbrs	r23, 7
    2670:	02 c0       	rjmp	.+4      	; 0x2676 <dtoa_prf+0x216>
    2672:	40 e0       	ldi	r20, 0x00	; 0
    2674:	50 e0       	ldi	r21, 0x00	; 0
    2676:	fb 01       	movw	r30, r22
    2678:	e4 1b       	sub	r30, r20
    267a:	f5 0b       	sbc	r31, r21
    267c:	a1 e0       	ldi	r26, 0x01	; 1
    267e:	b0 e0       	ldi	r27, 0x00	; 0
    2680:	ac 0f       	add	r26, r28
    2682:	bd 1f       	adc	r27, r29
    2684:	ea 0f       	add	r30, r26
    2686:	fb 1f       	adc	r31, r27
    2688:	8e e2       	ldi	r24, 0x2E	; 46
    268a:	a8 2e       	mov	r10, r24
    268c:	4b 01       	movw	r8, r22
    268e:	80 1a       	sub	r8, r16
    2690:	91 08       	sbc	r9, r1
    2692:	0b 2d       	mov	r16, r11
    2694:	10 e0       	ldi	r17, 0x00	; 0
    2696:	11 95       	neg	r17
    2698:	01 95       	neg	r16
    269a:	11 09       	sbc	r17, r1
    269c:	4f 3f       	cpi	r20, 0xFF	; 255
    269e:	bf ef       	ldi	r27, 0xFF	; 255
    26a0:	5b 07       	cpc	r21, r27
    26a2:	21 f4       	brne	.+8      	; 0x26ac <dtoa_prf+0x24c>
    26a4:	d6 01       	movw	r26, r12
    26a6:	ac 92       	st	X, r10
    26a8:	11 96       	adiw	r26, 0x01	; 1
    26aa:	6d 01       	movw	r12, r26
    26ac:	64 17       	cp	r22, r20
    26ae:	75 07       	cpc	r23, r21
    26b0:	2c f0       	brlt	.+10     	; 0x26bc <dtoa_prf+0x25c>
    26b2:	84 16       	cp	r8, r20
    26b4:	95 06       	cpc	r9, r21
    26b6:	14 f4       	brge	.+4      	; 0x26bc <dtoa_prf+0x25c>
    26b8:	81 81       	ldd	r24, Z+1	; 0x01
    26ba:	01 c0       	rjmp	.+2      	; 0x26be <dtoa_prf+0x25e>
    26bc:	80 e3       	ldi	r24, 0x30	; 48
    26be:	41 50       	subi	r20, 0x01	; 1
    26c0:	51 09       	sbc	r21, r1
    26c2:	31 96       	adiw	r30, 0x01	; 1
    26c4:	d6 01       	movw	r26, r12
    26c6:	11 96       	adiw	r26, 0x01	; 1
    26c8:	7d 01       	movw	r14, r26
    26ca:	40 17       	cp	r20, r16
    26cc:	51 07       	cpc	r21, r17
    26ce:	24 f0       	brlt	.+8      	; 0x26d8 <dtoa_prf+0x278>
    26d0:	d6 01       	movw	r26, r12
    26d2:	8c 93       	st	X, r24
    26d4:	67 01       	movw	r12, r14
    26d6:	e2 cf       	rjmp	.-60     	; 0x269c <dtoa_prf+0x23c>
    26d8:	64 17       	cp	r22, r20
    26da:	75 07       	cpc	r23, r21
    26dc:	39 f4       	brne	.+14     	; 0x26ec <dtoa_prf+0x28c>
    26de:	96 33       	cpi	r25, 0x36	; 54
    26e0:	20 f4       	brcc	.+8      	; 0x26ea <dtoa_prf+0x28a>
    26e2:	95 33       	cpi	r25, 0x35	; 53
    26e4:	19 f4       	brne	.+6      	; 0x26ec <dtoa_prf+0x28c>
    26e6:	31 11       	cpse	r19, r1
    26e8:	01 c0       	rjmp	.+2      	; 0x26ec <dtoa_prf+0x28c>
    26ea:	81 e3       	ldi	r24, 0x31	; 49
    26ec:	f6 01       	movw	r30, r12
    26ee:	80 83       	st	Z, r24
    26f0:	f7 01       	movw	r30, r14
    26f2:	82 2f       	mov	r24, r18
    26f4:	90 e2       	ldi	r25, 0x20	; 32
    26f6:	88 23       	and	r24, r24
    26f8:	19 f0       	breq	.+6      	; 0x2700 <dtoa_prf+0x2a0>
    26fa:	91 93       	st	Z+, r25
    26fc:	81 50       	subi	r24, 0x01	; 1
    26fe:	fb cf       	rjmp	.-10     	; 0x26f6 <dtoa_prf+0x296>
    2700:	f7 01       	movw	r30, r14
    2702:	e2 0f       	add	r30, r18
    2704:	f1 1d       	adc	r31, r1
    2706:	10 82       	st	Z, r1
    2708:	80 e0       	ldi	r24, 0x00	; 0
    270a:	90 e0       	ldi	r25, 0x00	; 0
    270c:	29 96       	adiw	r28, 0x09	; 9
    270e:	ec e0       	ldi	r30, 0x0C	; 12
    2710:	0c 94 f6 15 	jmp	0x2bec	; 0x2bec <__epilogue_restores__+0xc>

00002714 <__ftoa_engine>:
    2714:	28 30       	cpi	r18, 0x08	; 8
    2716:	08 f0       	brcs	.+2      	; 0x271a <__ftoa_engine+0x6>
    2718:	27 e0       	ldi	r18, 0x07	; 7
    271a:	33 27       	eor	r19, r19
    271c:	da 01       	movw	r26, r20
    271e:	99 0f       	add	r25, r25
    2720:	31 1d       	adc	r19, r1
    2722:	87 fd       	sbrc	r24, 7
    2724:	91 60       	ori	r25, 0x01	; 1
    2726:	00 96       	adiw	r24, 0x00	; 0
    2728:	61 05       	cpc	r22, r1
    272a:	71 05       	cpc	r23, r1
    272c:	39 f4       	brne	.+14     	; 0x273c <__ftoa_engine+0x28>
    272e:	32 60       	ori	r19, 0x02	; 2
    2730:	2e 5f       	subi	r18, 0xFE	; 254
    2732:	3d 93       	st	X+, r19
    2734:	30 e3       	ldi	r19, 0x30	; 48
    2736:	2a 95       	dec	r18
    2738:	e1 f7       	brne	.-8      	; 0x2732 <__ftoa_engine+0x1e>
    273a:	08 95       	ret
    273c:	9f 3f       	cpi	r25, 0xFF	; 255
    273e:	30 f0       	brcs	.+12     	; 0x274c <__ftoa_engine+0x38>
    2740:	80 38       	cpi	r24, 0x80	; 128
    2742:	71 05       	cpc	r23, r1
    2744:	61 05       	cpc	r22, r1
    2746:	09 f0       	breq	.+2      	; 0x274a <__ftoa_engine+0x36>
    2748:	3c 5f       	subi	r19, 0xFC	; 252
    274a:	3c 5f       	subi	r19, 0xFC	; 252
    274c:	3d 93       	st	X+, r19
    274e:	91 30       	cpi	r25, 0x01	; 1
    2750:	08 f0       	brcs	.+2      	; 0x2754 <__ftoa_engine+0x40>
    2752:	80 68       	ori	r24, 0x80	; 128
    2754:	91 1d       	adc	r25, r1
    2756:	df 93       	push	r29
    2758:	cf 93       	push	r28
    275a:	1f 93       	push	r17
    275c:	0f 93       	push	r16
    275e:	ff 92       	push	r15
    2760:	ef 92       	push	r14
    2762:	19 2f       	mov	r17, r25
    2764:	98 7f       	andi	r25, 0xF8	; 248
    2766:	96 95       	lsr	r25
    2768:	e9 2f       	mov	r30, r25
    276a:	96 95       	lsr	r25
    276c:	96 95       	lsr	r25
    276e:	e9 0f       	add	r30, r25
    2770:	ff 27       	eor	r31, r31
    2772:	e6 59       	subi	r30, 0x96	; 150
    2774:	fe 4f       	sbci	r31, 0xFE	; 254
    2776:	99 27       	eor	r25, r25
    2778:	33 27       	eor	r19, r19
    277a:	ee 24       	eor	r14, r14
    277c:	ff 24       	eor	r15, r15
    277e:	a7 01       	movw	r20, r14
    2780:	e7 01       	movw	r28, r14
    2782:	05 90       	lpm	r0, Z+
    2784:	08 94       	sec
    2786:	07 94       	ror	r0
    2788:	28 f4       	brcc	.+10     	; 0x2794 <__ftoa_engine+0x80>
    278a:	36 0f       	add	r19, r22
    278c:	e7 1e       	adc	r14, r23
    278e:	f8 1e       	adc	r15, r24
    2790:	49 1f       	adc	r20, r25
    2792:	51 1d       	adc	r21, r1
    2794:	66 0f       	add	r22, r22
    2796:	77 1f       	adc	r23, r23
    2798:	88 1f       	adc	r24, r24
    279a:	99 1f       	adc	r25, r25
    279c:	06 94       	lsr	r0
    279e:	a1 f7       	brne	.-24     	; 0x2788 <__ftoa_engine+0x74>
    27a0:	05 90       	lpm	r0, Z+
    27a2:	07 94       	ror	r0
    27a4:	28 f4       	brcc	.+10     	; 0x27b0 <__ftoa_engine+0x9c>
    27a6:	e7 0e       	add	r14, r23
    27a8:	f8 1e       	adc	r15, r24
    27aa:	49 1f       	adc	r20, r25
    27ac:	56 1f       	adc	r21, r22
    27ae:	c1 1d       	adc	r28, r1
    27b0:	77 0f       	add	r23, r23
    27b2:	88 1f       	adc	r24, r24
    27b4:	99 1f       	adc	r25, r25
    27b6:	66 1f       	adc	r22, r22
    27b8:	06 94       	lsr	r0
    27ba:	a1 f7       	brne	.-24     	; 0x27a4 <__ftoa_engine+0x90>
    27bc:	05 90       	lpm	r0, Z+
    27be:	07 94       	ror	r0
    27c0:	28 f4       	brcc	.+10     	; 0x27cc <__ftoa_engine+0xb8>
    27c2:	f8 0e       	add	r15, r24
    27c4:	49 1f       	adc	r20, r25
    27c6:	56 1f       	adc	r21, r22
    27c8:	c7 1f       	adc	r28, r23
    27ca:	d1 1d       	adc	r29, r1
    27cc:	88 0f       	add	r24, r24
    27ce:	99 1f       	adc	r25, r25
    27d0:	66 1f       	adc	r22, r22
    27d2:	77 1f       	adc	r23, r23
    27d4:	06 94       	lsr	r0
    27d6:	a1 f7       	brne	.-24     	; 0x27c0 <__ftoa_engine+0xac>
    27d8:	05 90       	lpm	r0, Z+
    27da:	07 94       	ror	r0
    27dc:	20 f4       	brcc	.+8      	; 0x27e6 <__ftoa_engine+0xd2>
    27de:	49 0f       	add	r20, r25
    27e0:	56 1f       	adc	r21, r22
    27e2:	c7 1f       	adc	r28, r23
    27e4:	d8 1f       	adc	r29, r24
    27e6:	99 0f       	add	r25, r25
    27e8:	66 1f       	adc	r22, r22
    27ea:	77 1f       	adc	r23, r23
    27ec:	88 1f       	adc	r24, r24
    27ee:	06 94       	lsr	r0
    27f0:	a9 f7       	brne	.-22     	; 0x27dc <__ftoa_engine+0xc8>
    27f2:	84 91       	lpm	r24, Z
    27f4:	10 95       	com	r17
    27f6:	17 70       	andi	r17, 0x07	; 7
    27f8:	41 f0       	breq	.+16     	; 0x280a <__ftoa_engine+0xf6>
    27fa:	d6 95       	lsr	r29
    27fc:	c7 95       	ror	r28
    27fe:	57 95       	ror	r21
    2800:	47 95       	ror	r20
    2802:	f7 94       	ror	r15
    2804:	e7 94       	ror	r14
    2806:	1a 95       	dec	r17
    2808:	c1 f7       	brne	.-16     	; 0x27fa <__ftoa_engine+0xe6>
    280a:	e0 e1       	ldi	r30, 0x10	; 16
    280c:	f1 e0       	ldi	r31, 0x01	; 1
    280e:	68 94       	set
    2810:	15 90       	lpm	r1, Z+
    2812:	15 91       	lpm	r17, Z+
    2814:	35 91       	lpm	r19, Z+
    2816:	65 91       	lpm	r22, Z+
    2818:	95 91       	lpm	r25, Z+
    281a:	05 90       	lpm	r0, Z+
    281c:	7f e2       	ldi	r23, 0x2F	; 47
    281e:	73 95       	inc	r23
    2820:	e1 18       	sub	r14, r1
    2822:	f1 0a       	sbc	r15, r17
    2824:	43 0b       	sbc	r20, r19
    2826:	56 0b       	sbc	r21, r22
    2828:	c9 0b       	sbc	r28, r25
    282a:	d0 09       	sbc	r29, r0
    282c:	c0 f7       	brcc	.-16     	; 0x281e <__ftoa_engine+0x10a>
    282e:	e1 0c       	add	r14, r1
    2830:	f1 1e       	adc	r15, r17
    2832:	43 1f       	adc	r20, r19
    2834:	56 1f       	adc	r21, r22
    2836:	c9 1f       	adc	r28, r25
    2838:	d0 1d       	adc	r29, r0
    283a:	7e f4       	brtc	.+30     	; 0x285a <__ftoa_engine+0x146>
    283c:	70 33       	cpi	r23, 0x30	; 48
    283e:	11 f4       	brne	.+4      	; 0x2844 <__ftoa_engine+0x130>
    2840:	8a 95       	dec	r24
    2842:	e6 cf       	rjmp	.-52     	; 0x2810 <__ftoa_engine+0xfc>
    2844:	e8 94       	clt
    2846:	01 50       	subi	r16, 0x01	; 1
    2848:	30 f0       	brcs	.+12     	; 0x2856 <__ftoa_engine+0x142>
    284a:	08 0f       	add	r16, r24
    284c:	0a f4       	brpl	.+2      	; 0x2850 <__ftoa_engine+0x13c>
    284e:	00 27       	eor	r16, r16
    2850:	02 17       	cp	r16, r18
    2852:	08 f4       	brcc	.+2      	; 0x2856 <__ftoa_engine+0x142>
    2854:	20 2f       	mov	r18, r16
    2856:	23 95       	inc	r18
    2858:	02 2f       	mov	r16, r18
    285a:	7a 33       	cpi	r23, 0x3A	; 58
    285c:	28 f0       	brcs	.+10     	; 0x2868 <__ftoa_engine+0x154>
    285e:	79 e3       	ldi	r23, 0x39	; 57
    2860:	7d 93       	st	X+, r23
    2862:	2a 95       	dec	r18
    2864:	e9 f7       	brne	.-6      	; 0x2860 <__ftoa_engine+0x14c>
    2866:	10 c0       	rjmp	.+32     	; 0x2888 <__ftoa_engine+0x174>
    2868:	7d 93       	st	X+, r23
    286a:	2a 95       	dec	r18
    286c:	89 f6       	brne	.-94     	; 0x2810 <__ftoa_engine+0xfc>
    286e:	06 94       	lsr	r0
    2870:	97 95       	ror	r25
    2872:	67 95       	ror	r22
    2874:	37 95       	ror	r19
    2876:	17 95       	ror	r17
    2878:	17 94       	ror	r1
    287a:	e1 18       	sub	r14, r1
    287c:	f1 0a       	sbc	r15, r17
    287e:	43 0b       	sbc	r20, r19
    2880:	56 0b       	sbc	r21, r22
    2882:	c9 0b       	sbc	r28, r25
    2884:	d0 09       	sbc	r29, r0
    2886:	98 f0       	brcs	.+38     	; 0x28ae <__ftoa_engine+0x19a>
    2888:	23 95       	inc	r18
    288a:	7e 91       	ld	r23, -X
    288c:	73 95       	inc	r23
    288e:	7a 33       	cpi	r23, 0x3A	; 58
    2890:	08 f0       	brcs	.+2      	; 0x2894 <__ftoa_engine+0x180>
    2892:	70 e3       	ldi	r23, 0x30	; 48
    2894:	7c 93       	st	X, r23
    2896:	20 13       	cpse	r18, r16
    2898:	b8 f7       	brcc	.-18     	; 0x2888 <__ftoa_engine+0x174>
    289a:	7e 91       	ld	r23, -X
    289c:	70 61       	ori	r23, 0x10	; 16
    289e:	7d 93       	st	X+, r23
    28a0:	30 f0       	brcs	.+12     	; 0x28ae <__ftoa_engine+0x19a>
    28a2:	83 95       	inc	r24
    28a4:	71 e3       	ldi	r23, 0x31	; 49
    28a6:	7d 93       	st	X+, r23
    28a8:	70 e3       	ldi	r23, 0x30	; 48
    28aa:	2a 95       	dec	r18
    28ac:	e1 f7       	brne	.-8      	; 0x28a6 <__ftoa_engine+0x192>
    28ae:	11 24       	eor	r1, r1
    28b0:	ef 90       	pop	r14
    28b2:	ff 90       	pop	r15
    28b4:	0f 91       	pop	r16
    28b6:	1f 91       	pop	r17
    28b8:	cf 91       	pop	r28
    28ba:	df 91       	pop	r29
    28bc:	99 27       	eor	r25, r25
    28be:	87 fd       	sbrc	r24, 7
    28c0:	90 95       	com	r25
    28c2:	08 95       	ret

000028c4 <strnlen_P>:
    28c4:	fc 01       	movw	r30, r24
    28c6:	05 90       	lpm	r0, Z+
    28c8:	61 50       	subi	r22, 0x01	; 1
    28ca:	70 40       	sbci	r23, 0x00	; 0
    28cc:	01 10       	cpse	r0, r1
    28ce:	d8 f7       	brcc	.-10     	; 0x28c6 <strnlen_P+0x2>
    28d0:	80 95       	com	r24
    28d2:	90 95       	com	r25
    28d4:	8e 0f       	add	r24, r30
    28d6:	9f 1f       	adc	r25, r31
    28d8:	08 95       	ret

000028da <strcpy>:
    28da:	fb 01       	movw	r30, r22
    28dc:	dc 01       	movw	r26, r24
    28de:	01 90       	ld	r0, Z+
    28e0:	0d 92       	st	X+, r0
    28e2:	00 20       	and	r0, r0
    28e4:	e1 f7       	brne	.-8      	; 0x28de <strcpy+0x4>
    28e6:	08 95       	ret

000028e8 <strnlen>:
    28e8:	fc 01       	movw	r30, r24
    28ea:	61 50       	subi	r22, 0x01	; 1
    28ec:	70 40       	sbci	r23, 0x00	; 0
    28ee:	01 90       	ld	r0, Z+
    28f0:	01 10       	cpse	r0, r1
    28f2:	d8 f7       	brcc	.-10     	; 0x28ea <strnlen+0x2>
    28f4:	80 95       	com	r24
    28f6:	90 95       	com	r25
    28f8:	8e 0f       	add	r24, r30
    28fa:	9f 1f       	adc	r25, r31
    28fc:	08 95       	ret

000028fe <fputc>:
    28fe:	0f 93       	push	r16
    2900:	1f 93       	push	r17
    2902:	cf 93       	push	r28
    2904:	df 93       	push	r29
    2906:	fb 01       	movw	r30, r22
    2908:	23 81       	ldd	r18, Z+3	; 0x03
    290a:	21 fd       	sbrc	r18, 1
    290c:	03 c0       	rjmp	.+6      	; 0x2914 <fputc+0x16>
    290e:	8f ef       	ldi	r24, 0xFF	; 255
    2910:	9f ef       	ldi	r25, 0xFF	; 255
    2912:	2c c0       	rjmp	.+88     	; 0x296c <fputc+0x6e>
    2914:	22 ff       	sbrs	r18, 2
    2916:	16 c0       	rjmp	.+44     	; 0x2944 <fputc+0x46>
    2918:	46 81       	ldd	r20, Z+6	; 0x06
    291a:	57 81       	ldd	r21, Z+7	; 0x07
    291c:	24 81       	ldd	r18, Z+4	; 0x04
    291e:	35 81       	ldd	r19, Z+5	; 0x05
    2920:	42 17       	cp	r20, r18
    2922:	53 07       	cpc	r21, r19
    2924:	44 f4       	brge	.+16     	; 0x2936 <fputc+0x38>
    2926:	a0 81       	ld	r26, Z
    2928:	b1 81       	ldd	r27, Z+1	; 0x01
    292a:	9d 01       	movw	r18, r26
    292c:	2f 5f       	subi	r18, 0xFF	; 255
    292e:	3f 4f       	sbci	r19, 0xFF	; 255
    2930:	31 83       	std	Z+1, r19	; 0x01
    2932:	20 83       	st	Z, r18
    2934:	8c 93       	st	X, r24
    2936:	26 81       	ldd	r18, Z+6	; 0x06
    2938:	37 81       	ldd	r19, Z+7	; 0x07
    293a:	2f 5f       	subi	r18, 0xFF	; 255
    293c:	3f 4f       	sbci	r19, 0xFF	; 255
    293e:	37 83       	std	Z+7, r19	; 0x07
    2940:	26 83       	std	Z+6, r18	; 0x06
    2942:	14 c0       	rjmp	.+40     	; 0x296c <fputc+0x6e>
    2944:	8b 01       	movw	r16, r22
    2946:	ec 01       	movw	r28, r24
    2948:	fb 01       	movw	r30, r22
    294a:	00 84       	ldd	r0, Z+8	; 0x08
    294c:	f1 85       	ldd	r31, Z+9	; 0x09
    294e:	e0 2d       	mov	r30, r0
    2950:	09 95       	icall
    2952:	89 2b       	or	r24, r25
    2954:	e1 f6       	brne	.-72     	; 0x290e <fputc+0x10>
    2956:	d8 01       	movw	r26, r16
    2958:	16 96       	adiw	r26, 0x06	; 6
    295a:	8d 91       	ld	r24, X+
    295c:	9c 91       	ld	r25, X
    295e:	17 97       	sbiw	r26, 0x07	; 7
    2960:	01 96       	adiw	r24, 0x01	; 1
    2962:	17 96       	adiw	r26, 0x07	; 7
    2964:	9c 93       	st	X, r25
    2966:	8e 93       	st	-X, r24
    2968:	16 97       	sbiw	r26, 0x06	; 6
    296a:	ce 01       	movw	r24, r28
    296c:	df 91       	pop	r29
    296e:	cf 91       	pop	r28
    2970:	1f 91       	pop	r17
    2972:	0f 91       	pop	r16
    2974:	08 95       	ret

00002976 <sprintf>:
    2976:	ae e0       	ldi	r26, 0x0E	; 14
    2978:	b0 e0       	ldi	r27, 0x00	; 0
    297a:	e1 ec       	ldi	r30, 0xC1	; 193
    297c:	f4 e1       	ldi	r31, 0x14	; 20
    297e:	0c 94 e2 15 	jmp	0x2bc4	; 0x2bc4 <__prologue_saves__+0x1c>
    2982:	0d 89       	ldd	r16, Y+21	; 0x15
    2984:	1e 89       	ldd	r17, Y+22	; 0x16
    2986:	86 e0       	ldi	r24, 0x06	; 6
    2988:	8c 83       	std	Y+4, r24	; 0x04
    298a:	1a 83       	std	Y+2, r17	; 0x02
    298c:	09 83       	std	Y+1, r16	; 0x01
    298e:	8f ef       	ldi	r24, 0xFF	; 255
    2990:	9f e7       	ldi	r25, 0x7F	; 127
    2992:	9e 83       	std	Y+6, r25	; 0x06
    2994:	8d 83       	std	Y+5, r24	; 0x05
    2996:	ae 01       	movw	r20, r28
    2998:	47 5e       	subi	r20, 0xE7	; 231
    299a:	5f 4f       	sbci	r21, 0xFF	; 255
    299c:	6f 89       	ldd	r22, Y+23	; 0x17
    299e:	78 8d       	ldd	r23, Y+24	; 0x18
    29a0:	ce 01       	movw	r24, r28
    29a2:	01 96       	adiw	r24, 0x01	; 1
    29a4:	0e 94 4f 10 	call	0x209e	; 0x209e <vfprintf>
    29a8:	ef 81       	ldd	r30, Y+7	; 0x07
    29aa:	f8 85       	ldd	r31, Y+8	; 0x08
    29ac:	e0 0f       	add	r30, r16
    29ae:	f1 1f       	adc	r31, r17
    29b0:	10 82       	st	Z, r1
    29b2:	2e 96       	adiw	r28, 0x0e	; 14
    29b4:	e4 e0       	ldi	r30, 0x04	; 4
    29b6:	0c 94 fe 15 	jmp	0x2bfc	; 0x2bfc <__epilogue_restores__+0x1c>

000029ba <__ultoa_invert>:
    29ba:	fa 01       	movw	r30, r20
    29bc:	aa 27       	eor	r26, r26
    29be:	28 30       	cpi	r18, 0x08	; 8
    29c0:	51 f1       	breq	.+84     	; 0x2a16 <__ultoa_invert+0x5c>
    29c2:	20 31       	cpi	r18, 0x10	; 16
    29c4:	81 f1       	breq	.+96     	; 0x2a26 <__ultoa_invert+0x6c>
    29c6:	e8 94       	clt
    29c8:	6f 93       	push	r22
    29ca:	6e 7f       	andi	r22, 0xFE	; 254
    29cc:	6e 5f       	subi	r22, 0xFE	; 254
    29ce:	7f 4f       	sbci	r23, 0xFF	; 255
    29d0:	8f 4f       	sbci	r24, 0xFF	; 255
    29d2:	9f 4f       	sbci	r25, 0xFF	; 255
    29d4:	af 4f       	sbci	r26, 0xFF	; 255
    29d6:	b1 e0       	ldi	r27, 0x01	; 1
    29d8:	3e d0       	rcall	.+124    	; 0x2a56 <__ultoa_invert+0x9c>
    29da:	b4 e0       	ldi	r27, 0x04	; 4
    29dc:	3c d0       	rcall	.+120    	; 0x2a56 <__ultoa_invert+0x9c>
    29de:	67 0f       	add	r22, r23
    29e0:	78 1f       	adc	r23, r24
    29e2:	89 1f       	adc	r24, r25
    29e4:	9a 1f       	adc	r25, r26
    29e6:	a1 1d       	adc	r26, r1
    29e8:	68 0f       	add	r22, r24
    29ea:	79 1f       	adc	r23, r25
    29ec:	8a 1f       	adc	r24, r26
    29ee:	91 1d       	adc	r25, r1
    29f0:	a1 1d       	adc	r26, r1
    29f2:	6a 0f       	add	r22, r26
    29f4:	71 1d       	adc	r23, r1
    29f6:	81 1d       	adc	r24, r1
    29f8:	91 1d       	adc	r25, r1
    29fa:	a1 1d       	adc	r26, r1
    29fc:	20 d0       	rcall	.+64     	; 0x2a3e <__ultoa_invert+0x84>
    29fe:	09 f4       	brne	.+2      	; 0x2a02 <__ultoa_invert+0x48>
    2a00:	68 94       	set
    2a02:	3f 91       	pop	r19
    2a04:	2a e0       	ldi	r18, 0x0A	; 10
    2a06:	26 9f       	mul	r18, r22
    2a08:	11 24       	eor	r1, r1
    2a0a:	30 19       	sub	r19, r0
    2a0c:	30 5d       	subi	r19, 0xD0	; 208
    2a0e:	31 93       	st	Z+, r19
    2a10:	de f6       	brtc	.-74     	; 0x29c8 <__ultoa_invert+0xe>
    2a12:	cf 01       	movw	r24, r30
    2a14:	08 95       	ret
    2a16:	46 2f       	mov	r20, r22
    2a18:	47 70       	andi	r20, 0x07	; 7
    2a1a:	40 5d       	subi	r20, 0xD0	; 208
    2a1c:	41 93       	st	Z+, r20
    2a1e:	b3 e0       	ldi	r27, 0x03	; 3
    2a20:	0f d0       	rcall	.+30     	; 0x2a40 <__ultoa_invert+0x86>
    2a22:	c9 f7       	brne	.-14     	; 0x2a16 <__ultoa_invert+0x5c>
    2a24:	f6 cf       	rjmp	.-20     	; 0x2a12 <__ultoa_invert+0x58>
    2a26:	46 2f       	mov	r20, r22
    2a28:	4f 70       	andi	r20, 0x0F	; 15
    2a2a:	40 5d       	subi	r20, 0xD0	; 208
    2a2c:	4a 33       	cpi	r20, 0x3A	; 58
    2a2e:	18 f0       	brcs	.+6      	; 0x2a36 <__ultoa_invert+0x7c>
    2a30:	49 5d       	subi	r20, 0xD9	; 217
    2a32:	31 fd       	sbrc	r19, 1
    2a34:	40 52       	subi	r20, 0x20	; 32
    2a36:	41 93       	st	Z+, r20
    2a38:	02 d0       	rcall	.+4      	; 0x2a3e <__ultoa_invert+0x84>
    2a3a:	a9 f7       	brne	.-22     	; 0x2a26 <__ultoa_invert+0x6c>
    2a3c:	ea cf       	rjmp	.-44     	; 0x2a12 <__ultoa_invert+0x58>
    2a3e:	b4 e0       	ldi	r27, 0x04	; 4
    2a40:	a6 95       	lsr	r26
    2a42:	97 95       	ror	r25
    2a44:	87 95       	ror	r24
    2a46:	77 95       	ror	r23
    2a48:	67 95       	ror	r22
    2a4a:	ba 95       	dec	r27
    2a4c:	c9 f7       	brne	.-14     	; 0x2a40 <__ultoa_invert+0x86>
    2a4e:	00 97       	sbiw	r24, 0x00	; 0
    2a50:	61 05       	cpc	r22, r1
    2a52:	71 05       	cpc	r23, r1
    2a54:	08 95       	ret
    2a56:	9b 01       	movw	r18, r22
    2a58:	ac 01       	movw	r20, r24
    2a5a:	0a 2e       	mov	r0, r26
    2a5c:	06 94       	lsr	r0
    2a5e:	57 95       	ror	r21
    2a60:	47 95       	ror	r20
    2a62:	37 95       	ror	r19
    2a64:	27 95       	ror	r18
    2a66:	ba 95       	dec	r27
    2a68:	c9 f7       	brne	.-14     	; 0x2a5c <__ultoa_invert+0xa2>
    2a6a:	62 0f       	add	r22, r18
    2a6c:	73 1f       	adc	r23, r19
    2a6e:	84 1f       	adc	r24, r20
    2a70:	95 1f       	adc	r25, r21
    2a72:	a0 1d       	adc	r26, r0
    2a74:	08 95       	ret

00002a76 <__mulsi3>:
    2a76:	db 01       	movw	r26, r22
    2a78:	8f 93       	push	r24
    2a7a:	9f 93       	push	r25
    2a7c:	0e 94 c9 15 	call	0x2b92	; 0x2b92 <__muluhisi3>
    2a80:	bf 91       	pop	r27
    2a82:	af 91       	pop	r26
    2a84:	a2 9f       	mul	r26, r18
    2a86:	80 0d       	add	r24, r0
    2a88:	91 1d       	adc	r25, r1
    2a8a:	a3 9f       	mul	r26, r19
    2a8c:	90 0d       	add	r25, r0
    2a8e:	b2 9f       	mul	r27, r18
    2a90:	90 0d       	add	r25, r0
    2a92:	11 24       	eor	r1, r1
    2a94:	08 95       	ret

00002a96 <__divmodqi4>:
    2a96:	87 fb       	bst	r24, 7
    2a98:	08 2e       	mov	r0, r24
    2a9a:	06 26       	eor	r0, r22
    2a9c:	87 fd       	sbrc	r24, 7
    2a9e:	81 95       	neg	r24
    2aa0:	67 fd       	sbrc	r22, 7
    2aa2:	61 95       	neg	r22
    2aa4:	0e 94 0b 16 	call	0x2c16	; 0x2c16 <__udivmodqi4>
    2aa8:	0e f4       	brtc	.+2      	; 0x2aac <__divmodqi4_1>
    2aaa:	91 95       	neg	r25

00002aac <__divmodqi4_1>:
    2aac:	07 fc       	sbrc	r0, 7
    2aae:	81 95       	neg	r24

00002ab0 <__divmodqi4_exit>:
    2ab0:	08 95       	ret

00002ab2 <__udivmodhi4>:
    2ab2:	aa 1b       	sub	r26, r26
    2ab4:	bb 1b       	sub	r27, r27
    2ab6:	51 e1       	ldi	r21, 0x11	; 17
    2ab8:	07 c0       	rjmp	.+14     	; 0x2ac8 <__udivmodhi4_ep>

00002aba <__udivmodhi4_loop>:
    2aba:	aa 1f       	adc	r26, r26
    2abc:	bb 1f       	adc	r27, r27
    2abe:	a6 17       	cp	r26, r22
    2ac0:	b7 07       	cpc	r27, r23
    2ac2:	10 f0       	brcs	.+4      	; 0x2ac8 <__udivmodhi4_ep>
    2ac4:	a6 1b       	sub	r26, r22
    2ac6:	b7 0b       	sbc	r27, r23

00002ac8 <__udivmodhi4_ep>:
    2ac8:	88 1f       	adc	r24, r24
    2aca:	99 1f       	adc	r25, r25
    2acc:	5a 95       	dec	r21
    2ace:	a9 f7       	brne	.-22     	; 0x2aba <__udivmodhi4_loop>
    2ad0:	80 95       	com	r24
    2ad2:	90 95       	com	r25
    2ad4:	bc 01       	movw	r22, r24
    2ad6:	cd 01       	movw	r24, r26
    2ad8:	08 95       	ret

00002ada <__divmodhi4>:
    2ada:	97 fb       	bst	r25, 7
    2adc:	07 2e       	mov	r0, r23
    2ade:	16 f4       	brtc	.+4      	; 0x2ae4 <__divmodhi4+0xa>
    2ae0:	00 94       	com	r0
    2ae2:	07 d0       	rcall	.+14     	; 0x2af2 <__divmodhi4_neg1>
    2ae4:	77 fd       	sbrc	r23, 7
    2ae6:	09 d0       	rcall	.+18     	; 0x2afa <__divmodhi4_neg2>
    2ae8:	0e 94 59 15 	call	0x2ab2	; 0x2ab2 <__udivmodhi4>
    2aec:	07 fc       	sbrc	r0, 7
    2aee:	05 d0       	rcall	.+10     	; 0x2afa <__divmodhi4_neg2>
    2af0:	3e f4       	brtc	.+14     	; 0x2b00 <__divmodhi4_exit>

00002af2 <__divmodhi4_neg1>:
    2af2:	90 95       	com	r25
    2af4:	81 95       	neg	r24
    2af6:	9f 4f       	sbci	r25, 0xFF	; 255
    2af8:	08 95       	ret

00002afa <__divmodhi4_neg2>:
    2afa:	70 95       	com	r23
    2afc:	61 95       	neg	r22
    2afe:	7f 4f       	sbci	r23, 0xFF	; 255

00002b00 <__divmodhi4_exit>:
    2b00:	08 95       	ret

00002b02 <__udivmodsi4>:
    2b02:	a1 e2       	ldi	r26, 0x21	; 33
    2b04:	1a 2e       	mov	r1, r26
    2b06:	aa 1b       	sub	r26, r26
    2b08:	bb 1b       	sub	r27, r27
    2b0a:	fd 01       	movw	r30, r26
    2b0c:	0d c0       	rjmp	.+26     	; 0x2b28 <__udivmodsi4_ep>

00002b0e <__udivmodsi4_loop>:
    2b0e:	aa 1f       	adc	r26, r26
    2b10:	bb 1f       	adc	r27, r27
    2b12:	ee 1f       	adc	r30, r30
    2b14:	ff 1f       	adc	r31, r31
    2b16:	a2 17       	cp	r26, r18
    2b18:	b3 07       	cpc	r27, r19
    2b1a:	e4 07       	cpc	r30, r20
    2b1c:	f5 07       	cpc	r31, r21
    2b1e:	20 f0       	brcs	.+8      	; 0x2b28 <__udivmodsi4_ep>
    2b20:	a2 1b       	sub	r26, r18
    2b22:	b3 0b       	sbc	r27, r19
    2b24:	e4 0b       	sbc	r30, r20
    2b26:	f5 0b       	sbc	r31, r21

00002b28 <__udivmodsi4_ep>:
    2b28:	66 1f       	adc	r22, r22
    2b2a:	77 1f       	adc	r23, r23
    2b2c:	88 1f       	adc	r24, r24
    2b2e:	99 1f       	adc	r25, r25
    2b30:	1a 94       	dec	r1
    2b32:	69 f7       	brne	.-38     	; 0x2b0e <__udivmodsi4_loop>
    2b34:	60 95       	com	r22
    2b36:	70 95       	com	r23
    2b38:	80 95       	com	r24
    2b3a:	90 95       	com	r25
    2b3c:	9b 01       	movw	r18, r22
    2b3e:	ac 01       	movw	r20, r24
    2b40:	bd 01       	movw	r22, r26
    2b42:	cf 01       	movw	r24, r30
    2b44:	08 95       	ret

00002b46 <__divmodsi4>:
    2b46:	05 2e       	mov	r0, r21
    2b48:	97 fb       	bst	r25, 7
    2b4a:	1e f4       	brtc	.+6      	; 0x2b52 <__divmodsi4+0xc>
    2b4c:	00 94       	com	r0
    2b4e:	0e 94 ba 15 	call	0x2b74	; 0x2b74 <__negsi2>
    2b52:	57 fd       	sbrc	r21, 7
    2b54:	07 d0       	rcall	.+14     	; 0x2b64 <__divmodsi4_neg2>
    2b56:	0e 94 81 15 	call	0x2b02	; 0x2b02 <__udivmodsi4>
    2b5a:	07 fc       	sbrc	r0, 7
    2b5c:	03 d0       	rcall	.+6      	; 0x2b64 <__divmodsi4_neg2>
    2b5e:	4e f4       	brtc	.+18     	; 0x2b72 <__divmodsi4_exit>
    2b60:	0c 94 ba 15 	jmp	0x2b74	; 0x2b74 <__negsi2>

00002b64 <__divmodsi4_neg2>:
    2b64:	50 95       	com	r21
    2b66:	40 95       	com	r20
    2b68:	30 95       	com	r19
    2b6a:	21 95       	neg	r18
    2b6c:	3f 4f       	sbci	r19, 0xFF	; 255
    2b6e:	4f 4f       	sbci	r20, 0xFF	; 255
    2b70:	5f 4f       	sbci	r21, 0xFF	; 255

00002b72 <__divmodsi4_exit>:
    2b72:	08 95       	ret

00002b74 <__negsi2>:
    2b74:	90 95       	com	r25
    2b76:	80 95       	com	r24
    2b78:	70 95       	com	r23
    2b7a:	61 95       	neg	r22
    2b7c:	7f 4f       	sbci	r23, 0xFF	; 255
    2b7e:	8f 4f       	sbci	r24, 0xFF	; 255
    2b80:	9f 4f       	sbci	r25, 0xFF	; 255
    2b82:	08 95       	ret

00002b84 <__usmulhisi3>:
    2b84:	0e 94 17 16 	call	0x2c2e	; 0x2c2e <__umulhisi3>

00002b88 <__usmulhisi3_tail>:
    2b88:	b7 ff       	sbrs	r27, 7
    2b8a:	08 95       	ret
    2b8c:	82 1b       	sub	r24, r18
    2b8e:	93 0b       	sbc	r25, r19
    2b90:	08 95       	ret

00002b92 <__muluhisi3>:
    2b92:	0e 94 17 16 	call	0x2c2e	; 0x2c2e <__umulhisi3>
    2b96:	a5 9f       	mul	r26, r21
    2b98:	90 0d       	add	r25, r0
    2b9a:	b4 9f       	mul	r27, r20
    2b9c:	90 0d       	add	r25, r0
    2b9e:	a4 9f       	mul	r26, r20
    2ba0:	80 0d       	add	r24, r0
    2ba2:	91 1d       	adc	r25, r1
    2ba4:	11 24       	eor	r1, r1
    2ba6:	08 95       	ret

00002ba8 <__prologue_saves__>:
    2ba8:	2f 92       	push	r2
    2baa:	3f 92       	push	r3
    2bac:	4f 92       	push	r4
    2bae:	5f 92       	push	r5
    2bb0:	6f 92       	push	r6
    2bb2:	7f 92       	push	r7
    2bb4:	8f 92       	push	r8
    2bb6:	9f 92       	push	r9
    2bb8:	af 92       	push	r10
    2bba:	bf 92       	push	r11
    2bbc:	cf 92       	push	r12
    2bbe:	df 92       	push	r13
    2bc0:	ef 92       	push	r14
    2bc2:	ff 92       	push	r15
    2bc4:	0f 93       	push	r16
    2bc6:	1f 93       	push	r17
    2bc8:	cf 93       	push	r28
    2bca:	df 93       	push	r29
    2bcc:	cd b7       	in	r28, 0x3d	; 61
    2bce:	de b7       	in	r29, 0x3e	; 62
    2bd0:	ca 1b       	sub	r28, r26
    2bd2:	db 0b       	sbc	r29, r27
    2bd4:	0f b6       	in	r0, 0x3f	; 63
    2bd6:	f8 94       	cli
    2bd8:	de bf       	out	0x3e, r29	; 62
    2bda:	0f be       	out	0x3f, r0	; 63
    2bdc:	cd bf       	out	0x3d, r28	; 61
    2bde:	09 94       	ijmp

00002be0 <__epilogue_restores__>:
    2be0:	2a 88       	ldd	r2, Y+18	; 0x12
    2be2:	39 88       	ldd	r3, Y+17	; 0x11
    2be4:	48 88       	ldd	r4, Y+16	; 0x10
    2be6:	5f 84       	ldd	r5, Y+15	; 0x0f
    2be8:	6e 84       	ldd	r6, Y+14	; 0x0e
    2bea:	7d 84       	ldd	r7, Y+13	; 0x0d
    2bec:	8c 84       	ldd	r8, Y+12	; 0x0c
    2bee:	9b 84       	ldd	r9, Y+11	; 0x0b
    2bf0:	aa 84       	ldd	r10, Y+10	; 0x0a
    2bf2:	b9 84       	ldd	r11, Y+9	; 0x09
    2bf4:	c8 84       	ldd	r12, Y+8	; 0x08
    2bf6:	df 80       	ldd	r13, Y+7	; 0x07
    2bf8:	ee 80       	ldd	r14, Y+6	; 0x06
    2bfa:	fd 80       	ldd	r15, Y+5	; 0x05
    2bfc:	0c 81       	ldd	r16, Y+4	; 0x04
    2bfe:	1b 81       	ldd	r17, Y+3	; 0x03
    2c00:	aa 81       	ldd	r26, Y+2	; 0x02
    2c02:	b9 81       	ldd	r27, Y+1	; 0x01
    2c04:	ce 0f       	add	r28, r30
    2c06:	d1 1d       	adc	r29, r1
    2c08:	0f b6       	in	r0, 0x3f	; 63
    2c0a:	f8 94       	cli
    2c0c:	de bf       	out	0x3e, r29	; 62
    2c0e:	0f be       	out	0x3f, r0	; 63
    2c10:	cd bf       	out	0x3d, r28	; 61
    2c12:	ed 01       	movw	r28, r26
    2c14:	08 95       	ret

00002c16 <__udivmodqi4>:
    2c16:	99 1b       	sub	r25, r25
    2c18:	79 e0       	ldi	r23, 0x09	; 9
    2c1a:	04 c0       	rjmp	.+8      	; 0x2c24 <__udivmodqi4_ep>

00002c1c <__udivmodqi4_loop>:
    2c1c:	99 1f       	adc	r25, r25
    2c1e:	96 17       	cp	r25, r22
    2c20:	08 f0       	brcs	.+2      	; 0x2c24 <__udivmodqi4_ep>
    2c22:	96 1b       	sub	r25, r22

00002c24 <__udivmodqi4_ep>:
    2c24:	88 1f       	adc	r24, r24
    2c26:	7a 95       	dec	r23
    2c28:	c9 f7       	brne	.-14     	; 0x2c1c <__udivmodqi4_loop>
    2c2a:	80 95       	com	r24
    2c2c:	08 95       	ret

00002c2e <__umulhisi3>:
    2c2e:	a2 9f       	mul	r26, r18
    2c30:	b0 01       	movw	r22, r0
    2c32:	b3 9f       	mul	r27, r19
    2c34:	c0 01       	movw	r24, r0
    2c36:	a3 9f       	mul	r26, r19
    2c38:	70 0d       	add	r23, r0
    2c3a:	81 1d       	adc	r24, r1
    2c3c:	11 24       	eor	r1, r1
    2c3e:	91 1d       	adc	r25, r1
    2c40:	b2 9f       	mul	r27, r18
    2c42:	70 0d       	add	r23, r0
    2c44:	81 1d       	adc	r24, r1
    2c46:	11 24       	eor	r1, r1
    2c48:	91 1d       	adc	r25, r1
    2c4a:	08 95       	ret

00002c4c <_exit>:
    2c4c:	f8 94       	cli

00002c4e <__stop_program>:
    2c4e:	ff cf       	rjmp	.-2      	; 0x2c4e <__stop_program>
